LX51 LINKER/LOCATER V4.66.97.0                                                          02/10/2023  14:24:31  PAGE 1


LX51 LINKER/LOCATER V4.66.97.0, INVOKED BY:
Z:\APPLICATIONS\SIMPLICITY STUDIO.APP\CONTENTS\ECLIPSE\DEVELOPER\TOOLCHAINS\KEIL_8051\9.60\BIN\LX51.EXE ./src/InitDevice
>> .OBJ, ./src/Interrupts.OBJ, ./src/SILABS_STARTUP.OBJ, ./src/SolarMpptCharger_main.OBJ, ./src/adc.OBJ, ./src/adc_ref_c
>> onst.OBJ, ./src/buck.OBJ, ./src/charge.OBJ, ./src/led.OBJ, ./src/param.OBJ, ./src/power.OBJ, ./src/smbus.OBJ, ./src/t
>> emp.OBJ, ./src/timer.OBJ, ./src/watchdog.OBJ TO SOLARMPPTCHARGER.OMF.CRBUILD REMOVEUNUSED PRINT (.\SolarMpptCharger.m
>> 51) PAGEWIDTH (120) PAGELENGTH (65) CLASSES (ECODE (C:0X0-C:0X1FFE), HCONST (C:0X0-C:0X1FFE), XDATA (X:0X0-X:0XFF), H
>> DATA (X:0X0-X:0XFF))


CPU MODE:     8051 MODE
MEMORY MODEL: COMPACT


INPUT MODULES INCLUDED:
  ./src/InitDevice.OBJ (INITDEVICE)
         COMMENT TYPE 0: C51 V9.60.0.0
  ./src/Interrupts.OBJ (INTERRUPTS)
         COMMENT TYPE 0: C51 V9.60.0.0
  ./src/SILABS_STARTUP.OBJ (?C_STARTUP)
         COMMENT TYPE 0: AX51 V3.15.3.0
  ./src/SolarMpptCharger_main.OBJ (SOLARMPPTCHARGER_MAIN)
         COMMENT TYPE 0: C51 V9.60.0.0
  ./src/adc.OBJ (ADC)
         COMMENT TYPE 0: C51 V9.60.0.0
  ./src/adc_ref_const.OBJ (ADC_REF_CONST)
         COMMENT TYPE 0: AX51 V3.15.3.0
  ./src/buck.OBJ (BUCK)
         COMMENT TYPE 0: C51 V9.60.0.0
  ./src/charge.OBJ (CHARGE)
         COMMENT TYPE 0: C51 V9.60.0.0
  ./src/led.OBJ (LED)
         COMMENT TYPE 0: C51 V9.60.0.0
  ./src/param.OBJ (PARAM)
         COMMENT TYPE 0: C51 V9.60.0.0
  ./src/power.OBJ (POWER)
         COMMENT TYPE 0: C51 V9.60.0.0
  ./src/smbus.OBJ (SMBUS)
         COMMENT TYPE 0: C51 V9.60.0.0
  ./src/temp.OBJ (TEMP)
         COMMENT TYPE 0: C51 V9.60.0.0
  ./src/timer.OBJ (TIMER)
         COMMENT TYPE 0: C51 V9.60.0.0
  ./src/watchdog.OBJ (WATCHDOG)
         COMMENT TYPE 0: C51 V9.60.0.0
  /APPLICATIONS/SIMPLICITY STUDIO.APP/CONTENTS/ECLIPSE/DEVELOPER/TOOLCHAINS/KEIL_8051/9.60/LIB\C51C.LIB (?C_INIT)
         COMMENT TYPE 1: A51 / ASM51 Assembler
  /APPLICATIONS/SIMPLICITY STUDIO.APP/CONTENTS/ECLIPSE/DEVELOPER/TOOLCHAINS/KEIL_8051/9.60/LIB\C51C.LIB (?C?UIDIV)
         COMMENT TYPE 1: A51 / ASM51 Assembler
  /APPLICATIONS/SIMPLICITY STUDIO.APP/CONTENTS/ECLIPSE/DEVELOPER/TOOLCHAINS/KEIL_8051/9.60/LIB\C51C.LIB (?C?ISTPTR)
         COMMENT TYPE 1: A51 / ASM51 Assembler
  /APPLICATIONS/SIMPLICITY STUDIO.APP/CONTENTS/ECLIPSE/DEVELOPER/TOOLCHAINS/KEIL_8051/9.60/LIB\C51C.LIB (?C?LMUL)
         COMMENT TYPE 1: A51 / ASM51 Assembler
  /APPLICATIONS/SIMPLICITY STUDIO.APP/CONTENTS/ECLIPSE/DEVELOPER/TOOLCHAINS/KEIL_8051/9.60/LIB\C51C.LIB (?C?ULDIV)
         COMMENT TYPE 1: A51 / ASM51 Assembler
  /APPLICATIONS/SIMPLICITY STUDIO.APP/CONTENTS/ECLIPSE/DEVELOPER/TOOLCHAINS/KEIL_8051/9.60/LIB\C51C.LIB (?C?SLDIV)
         COMMENT TYPE 1: A51 / ASM51 Assembler
  /APPLICATIONS/SIMPLICITY STUDIO.APP/CONTENTS/ECLIPSE/DEVELOPER/TOOLCHAINS/KEIL_8051/9.60/LIB\C51C.LIB (?C?SLCMP)
         COMMENT TYPE 1: A51 / ASM51 Assembler
  /APPLICATIONS/SIMPLICITY STUDIO.APP/CONTENTS/ECLIPSE/DEVELOPER/TOOLCHAINS/KEIL_8051/9.60/LIB\C51C.LIB (?C?ULCMP)
         COMMENT TYPE 1: A51 / ASM51 Assembler
  /APPLICATIONS/SIMPLICITY STUDIO.APP/CONTENTS/ECLIPSE/DEVELOPER/TOOLCHAINS/KEIL_8051/9.60/LIB\C51C.LIB (?C?ULSHR)
         COMMENT TYPE 1: A51 / ASM51 Assembler
  /APPLICATIONS/SIMPLICITY STUDIO.APP/CONTENTS/ECLIPSE/DEVELOPER/TOOLCHAINS/KEIL_8051/9.60/LIB\C51C.LIB (?C?SLSHR)
LX51 LINKER/LOCATER V4.66.97.0                                                        02/10/2023  14:24:31  PAGE 2


         COMMENT TYPE 1: A51 / ASM51 Assembler
  /APPLICATIONS/SIMPLICITY STUDIO.APP/CONTENTS/ECLIPSE/DEVELOPER/TOOLCHAINS/KEIL_8051/9.60/LIB\C51C.LIB (?C?LSHL)
         COMMENT TYPE 1: A51 / ASM51 Assembler
  /APPLICATIONS/SIMPLICITY STUDIO.APP/CONTENTS/ECLIPSE/DEVELOPER/TOOLCHAINS/KEIL_8051/9.60/LIB\C51C.LIB (?C?LLDIDATA)
         COMMENT TYPE 1: A51 / ASM51 Assembler
  /APPLICATIONS/SIMPLICITY STUDIO.APP/CONTENTS/ECLIPSE/DEVELOPER/TOOLCHAINS/KEIL_8051/9.60/LIB\C51C.LIB (?C?LSTIDATA)
         COMMENT TYPE 1: A51 / ASM51 Assembler
  /APPLICATIONS/SIMPLICITY STUDIO.APP/CONTENTS/ECLIPSE/DEVELOPER/TOOLCHAINS/KEIL_8051/9.60/LIB\C51C.LIB (?C?LSTPDATA)
         COMMENT TYPE 1: A51 / ASM51 Assembler
  /APPLICATIONS/SIMPLICITY STUDIO.APP/CONTENTS/ECLIPSE/DEVELOPER/TOOLCHAINS/KEIL_8051/9.60/LIB\C51C.LIB (?C?LSTKPDATA)
         COMMENT TYPE 1: A51 / ASM51 Assembler
  /APPLICATIONS/SIMPLICITY STUDIO.APP/CONTENTS/ECLIPSE/DEVELOPER/TOOLCHAINS/KEIL_8051/9.60/LIB\C51C.LIB (?C?LIMUL)
         COMMENT TYPE 1: A51 / ASM51 Assembler
  /APPLICATIONS/SIMPLICITY STUDIO.APP/CONTENTS/ECLIPSE/DEVELOPER/TOOLCHAINS/KEIL_8051/9.60/LIB\C51C.LIB (ABS)
         COMMENT TYPE 1: A51 / ASM51 Assembler


ACTIVE MEMORY CLASSES OF MODULE:  SOLARMPPTCHARGER.OMF.CRBUILD (INITDEVICE)

BASE        START       END         USED      MEMORY CLASS
==========================================================
C:000000H   C:000000H   C:001FFEH             ECODE
C:000000H   C:000000H   C:001FFEH             HCONST
X:000000H   X:000000H   X:0000FFH             XDATA
X:000000H   X:000000H   X:0000FFH             HDATA
C:000000H   C:000000H   C:00FFFFH   001F9DH   CODE
X:000000H   X:000000H   X:0000FFH   00008CH   PDATA
I:000000H   I:000000H   I:0000FFH   00004BH   IDATA
I:000020H.0 I:000020H.0 I:00002FH.7 000003H.2 BIT
C:000000H   C:000000H   C:00FFFFH   000042H   CONST
I:000000H   I:000000H   I:00007FH   000008H   DATA


MEMORY MAP OF MODULE:  SOLARMPPTCHARGER.OMF.CRBUILD (INITDEVICE)


START     STOP      LENGTH    ALIGN  RELOC    MEMORY CLASS   SEGMENT NAME
=========================================================================

* * * * * * * * * * *   D A T A   M E M O R Y   * * * * * * * * * * * * *
000000H   000007H   000008H   ---    AT..     DATA           "REG BANK 0"
000008H   00000DH   000006H   BYTE   UNIT     IDATA          ?ID?BUCK
00000EH.0 00001FH.7 000012H.0 ---    ---      **GAP**
000020H.0 000020H.6 000000H.7 BIT    UNIT     BIT            ?BI?POWER
000020H.7 000021H.2 000000H.4 BIT    UNIT     BIT            ?BI?BUCK
000021H.3 000021H.6 000000H.4 BIT    UNIT     BIT            _BIT_GROUP_
000021H.7 000022H.1 000000H.3 BIT    UNIT     BIT            ?BI?CHARGE
000022H.2 000022H.4 000000H.3 BIT    UNIT     BIT            ?BI?TIMER
000022H.5 000022H.5 000000H.1 BIT    UNIT     BIT            ?BI?ADC
000022H.6 000022H.6 000000H.1 BIT    UNIT     BIT            ?BI?PARAM
000022H.7 000022H.7 000000H.1 BIT    UNIT     BIT            ?BI?SMBUS
000023H.0 000023H.0 000000H.1 BIT    UNIT     BIT            ?BI?TEMP
000023H.1 000023H.1 000000H.1 BIT    UNIT     BIT            ?BI?WATCHDOG
000023H.2 000023H   000000H.6 ---    ---      **GAP**
000024H   000067H   000044H   BYTE   UNIT     IDATA          ?ID?ADC
000068H   000068H   000001H   BYTE   UNIT     IDATA          ?STACK

* * * * * * * * * * *   C O D E   M E M O R Y   * * * * * * * * * * * * *
000000H   000002H   000003H   ---    OFFS..   CODE           ?CO?SILABS_STARTUP?3
000003H   000009H   000007H   BYTE   UNIT     CODE           ?PR?PCACH_2_ENTER_DEFAULTMODE_FROM_RESET?INITDEVICE
00000AH   00000AH   000001H   ---    ---      **GAP**
00000BH   00000DH   000003H   BYTE   OFFS..   CODE           ?ADC?0000B
LX51 LINKER/LOCATER V4.66.97.0                                                        02/10/2023  14:24:31  PAGE 3


00000EH   00002AH   00001DH   BYTE   UNIT     CODE           ?PR?LED
00002BH   00002DH   000003H   BYTE   OFFS..   CODE           ?TIMER?0002B
00002EH   00003AH   00000DH   BYTE   UNIT     CODE           ?PR?PBCFG_0_ENTER_DEFAULTMODE_FROM_RESET?INITDEVICE
00003BH   00003DH   000003H   BYTE   OFFS..   CODE           ?SMBUS?0003B
00003EH   000052H   000015H   BYTE   UNIT     CODE           ?PR?ADC_0_ENTER_DEFAULTMODE_FROM_RESET?INITDEVICE
000053H   000055H   000003H   BYTE   OFFS..   CODE           ?ADC?00053
000056H   0002B1H   00025CH   BYTE   UNIT     CODE           ?C?LIB_CODE
0002B2H   00050BH   00025AH   BYTE   UNIT     CODE           ?PR?CHARGE_STATEUPDATE?CHARGE
00050CH   000704H   0001F9H   BYTE   UNIT     CODE           ?PR?POWER_UPDATE?POWER
000705H   0008A6H   0001A2H   BYTE   UNIT     CODE           ?PR?CHARGE_MPPTUPDATE?CHARGE
0008A7H   0009B8H   000112H   BYTE   UNIT     CODE           ?PR?TEMP_UPDATE?TEMP
0009B9H   000AA9H   0000F1H   BYTE   UNIT     CODE           ?PR?ADC
000AAAH   000B8EH   0000E5H   BYTE   UNIT     CODE           ?PR?BUCK_UPDATE?BUCK
000B8FH   000C6FH   0000E1H   BYTE   UNIT     CODE           ?PR?ADC_INIT?ADC
000C70H   000D4DH   0000DEH   BYTE   UNIT     CODE           ?PR?ADC0EOC_ISR?ADC
000D4EH   000E14H   0000C7H   BYTE   UNIT     CODE           ?PR?SMBUS0_ISR?SMBUS
000E15H   000EB7H   0000A3H   BYTE   UNIT     CODE           ?PR?__SMB_READREGISTER?SMBUS
000EB8H   000F59H   0000A2H   BYTE   UNIT     CODE           ?PR?__ADC2INTT10?ADC
000F5AH   000FEEH   000095H   BYTE   UNIT     CODE           ?PR?_CHARGE_COMPUTECHARGECURRENT?CHARGE
000FEFH   00107EH   000090H   BYTE   UNIT     CODE           ?PR?__ADC_PUSHTEMP?ADC
00107FH   00110AH   00008CH   BYTE   UNIT     CODE           ?C_C51STARTUP
00110BH   001194H   00008AH   BYTE   UNIT     CODE           ?PR?_SMB_GETINITSTATUS?SMBUS
001195H   00121AH   000086H   BYTE   UNIT     CODE           ?PR?_LED_SETUPPULSE?LED
00121BH   00129FH   000085H   BYTE   UNIT     CODE           ?PR?CHARGE
0012A0H   00131BH   00007CH   BYTE   UNIT     CODE           ?PR?__ADC_PUSHFILTEREDVAL?ADC
00131CH   001395H   00007AH   BYTE   UNIT     CODE           ?PR?POWER_INIT?POWER
001396H   001408H   000073H   BYTE   UNIT     CODE           ?PR?_LED_DOBLINK?LED
001409H   001477H   00006FH   BYTE   UNIT     CODE           ?PR?__SMB_WRITEREGISTER?SMBUS
001478H   0014E4H   00006DH   BYTE   UNIT     CODE           ?PR?_PARAM_SETINDEXEDVALUE?PARAM
0014E5H   001550H   00006CH   BYTE   UNIT     CODE           ?PR?__CHARGE_SETSTATE?CHARGE
001551H   0015BBH   00006BH   BYTE   UNIT     CODE           ?PR?BUCK_ENABLEREGULATE?BUCK
0015BCH   001623H   000068H   BYTE   UNIT     CODE           ?PR?SMB_INIT?SMBUS
001624H   001686H   000063H   BYTE   UNIT     CODE           ?PR?TIMER0_ISR?ADC
001687H   0016E6H   000060H   BYTE   UNIT     CODE           ?PR?TEMP
0016E7H   001742H   00005CH   BYTE   UNIT     CODE           ?PR?_LED_DOPULSE?LED
001743H   00179BH   000059H   BYTE   UNIT     CODE           ?PR?MAIN?SOLARMPPTCHARGER_MAIN
00179CH   0017F0H   000055H   BYTE   UNIT     CODE           ?PR?LED_UPDATE?LED
0017F1H   001842H   000052H   BYTE   UNIT     CODE           ?PR?_ADC_GETVALUE?ADC
001843H   001894H   000052H   BYTE   UNIT     CODE           ?PR?__ADC2EXTT10?ADC
001895H   0018DCH   000048H   BYTE   UNIT     CODE           ?PR?CHARGE_INIT?CHARGE
0018DDH   001920H   000044H   BYTE   UNIT     CODE           ?PR?ENTER_DEFAULTMODE_FROM_RESET?INITDEVICE
001921H   001964H   000044H   BYTE   UNIT     CODE           ?C?LDIV
001965H   0019A5H   000041H   BYTE   UNIT     CODE           ?PR?__LED_SETUPFAULT?LED
0019A6H   0019E3H   00003EH   BYTE   UNIT     CODE           ?PR?PARAM_INIT?PARAM
0019E4H   001A16H   000033H   BYTE   UNIT     CODE           ?PR?SMBUS
001A17H   001A48H   000032H   BYTE   UNIT     CODE           ?PR?__ADC_DELAYMSEC?ADC
001A49H   001A79H   000031H   BYTE   UNIT     CODE           ?PR?__LED_SETNORMALSTATE?LED
001A7AH   001AA8H   00002FH   BYTE   UNIT     CODE           ?PR?POWER
001AA9H   001AD4H   00002CH   BYTE   UNIT     CODE           ?PR?_BUCK_GETEFFICIENCY?BUCK
001AD5H   001AFEH   00002AH   BYTE   UNIT     CODE           ?PR?_LED_SETCURPWM2LED?LED
001AFFH   001B27H   000029H   BYTE   UNIT     CODE           ?PR?_PARAM_GETINDEXEDVALUE?PARAM
001B28H   001B4FH   000028H   BYTE   UNIT     CODE           ?PR?__CHARGE_STARTSCAN?CHARGE
001B50H   001B76H   000027H   BYTE   UNIT     CODE           ?PR?_ADC_GETVALUEFORISR?ADC
001B77H   001B9CH   000026H   BYTE   UNIT     CODE           ?PR?__ADCISR2MA?ADC
001B9DH   001BC2H   000026H   BYTE   UNIT     CODE           ?PR?_BUCK_UPDATEPWMOUTPUT?BUCK
001BC3H   001BE6H   000024H   BYTE   UNIT     CODE           ?PR?_CHARGE_SETREGULATE?CHARGE
001BE7H   001C0AH   000024H   BYTE   UNIT     CODE           ?PR?LED_INIT?LED
001C0BH   001C2DH   000023H   BYTE   UNIT     CODE           ?PR?__ADC2MA?ADC
001C2EH   001C50H   000023H   BYTE   UNIT     CODE           ?PR?_CHARGE_COMPUTEPOWER?CHARGE
001C51H   001C72H   000022H   BYTE   UNIT     CODE           ?PR?__PARAM_VALIDATENEWVALUE?PARAM
001C73H   001C94H   000022H   BYTE   UNIT     CODE           ?PR?TIMER_UPDATE?TIMER
001C95H   001CB5H   000021H   BYTE   UNIT     CODE           ?PR?__LED_SETUPBLINK?LED
LX51 LINKER/LOCATER V4.66.97.0                                                        02/10/2023  14:24:31  PAGE 4


001CB6H   001CD6H   000021H   BYTE   UNIT     CODE           ?PR?_SMB_SETSTATUSBIT?SMBUS
001CD7H   001CF5H   00001FH   BYTE   UNIT     CODE           ?PR?__ADC2MV?ADC
001CF6H   001D14H   00001FH   BYTE   UNIT     CODE           ?PR?__ADCISR2MV?ADC
001D15H   001D33H   00001FH   BYTE   UNIT     CODE           ?PR?_CHARGE_INCMPPTREGVOLTAGE?CHARGE
001D34H   001D4EH   00001BH   BYTE   UNIT     CODE           ?PR?BUCK_INIT?BUCK
001D4FH   001D69H   00001BH   BYTE   UNIT     CODE           ?PR?_CHARGE_DECMPPTREGVOLTAGE?CHARGE
001D6AH   001D84H   00001BH   BYTE   UNIT     CODE           ?PR?_SMB_SETSTATUSCHARGESTATE?SMBUS
001D85H   001D9DH   000019H   BYTE   UNIT     CODE           ?PR?TIMER16_2_ENTER_DEFAULTMODE_FROM_RESET?INITDEVICE
001D9EH   001DB6H   000019H   BYTE   UNIT     CODE           ?PR?_LED_RETURNCURNORMALSTATE?LED
001DB7H   001DCBH   000015H   BYTE   UNIT     CODE           ?PR?__ADC_GETSINGLEREADING?ADC
001DCCH   001DE0H   000015H   BYTE   UNIT     CODE           ?PR?BUCK
001DE1H   001DF4H   000014H   BYTE   UNIT     CODE           ?PR?_LED_RETURNFAULTINFO?LED
001DF5H   001E07H   000013H   BYTE   UNIT     CODE           ?PR?PCA_0_ENTER_DEFAULTMODE_FROM_RESET?INITDEVICE
001E08H   001E1AH   000013H   BYTE   UNIT     CODE           ?PR?PORTS_0_ENTER_DEFAULTMODE_FROM_RESET?INITDEVICE
001E1BH   001E2DH   000013H   BYTE   UNIT     CODE           ?PR?PORTS_1_ENTER_DEFAULTMODE_FROM_RESET?INITDEVICE
001E2EH   001E40H   000013H   BYTE   UNIT     CODE           ?PR?TIMER01_0_ENTER_DEFAULTMODE_FROM_RESET?INITDEVICE
001E41H   001E52H   000012H   BYTE   UNIT     CODE           ?PR?_POWER_SETWATCHDOGPWROFFTO?POWER
001E53H   001E64H   000012H   BYTE   UNIT     CODE           ?PR?_SMB_SETINDEXEDVALUE?SMBUS
001E65H   001E75H   000011H   BYTE   UNIT     CODE           ?PR?_CHARGE_ADJUSTCOMPBATTV?CHARGE
001E76H   001E83H   00000EH   BYTE   UNIT     CODE           ?PR?POWER_ENABLEWATCHDOG?POWER
001E84H   001E91H   00000EH   BYTE   UNIT     CODE           ?PR?_POWER_SETWATCHDOGTIMEOUT?POWER
001E92H   001E9FH   00000EH   BYTE   UNIT     CODE           ?PR?_SMB_SETBUCKSTATUS?SMBUS
001EA0H   001EACH   00000DH   BYTE   UNIT     CODE           ?PR?SMBUS_0_ENTER_DEFAULTMODE_FROM_RESET?INITDEVICE
001EADH   001EB9H   00000DH   BYTE   UNIT     CODE           ?PR?WD_INIT?WATCHDOG
001EBAH   001EC5H   00000CH   BYTE   UNIT     CODE           ?PR?CLOCK_0_ENTER_DEFAULTMODE_FROM_RESET?INITDEVICE
001EC6H   001ED1H   00000CH   BYTE   UNIT     CODE           ?C_INITSEG
001ED2H   001EDDH   00000CH   BYTE   UNIT     CODE           ?PR?_BUCK_SETSOLARVOLTAGE?BUCK
001EDEH   001EE9H   00000CH   BYTE   UNIT     CODE           ?PR?_BUCK_SETBATTVOLTAGE?BUCK
001EEAH   001EF5H   00000CH   BYTE   UNIT     CODE           ?PR?_ABS?ABS
001EF6H   001EFFH   00000AH   BYTE   UNIT     CODE           ?PR?PCACH_0_ENTER_DEFAULTMODE_FROM_RESET?INITDEVICE
001F00H   001F09H   00000AH   BYTE   UNIT     CODE           ?PR?PCACH_1_ENTER_DEFAULTMODE_FROM_RESET?INITDEVICE
001F0AH   001F13H   00000AH   BYTE   UNIT     CODE           ?PR?HFOSC_0_ENTER_DEFAULTMODE_FROM_RESET?INITDEVICE
001F14H   001F1DH   00000AH   BYTE   UNIT     CODE           ?PR?INTERRUPT_0_ENTER_DEFAULTMODE_FROM_RESET?INITDEVICE
001F1EH   001F27H   00000AH   BYTE   UNIT     CODE           ?PR?POWER_WATCHDOGRUNNING?POWER
001F28H   001F30H   000009H   BYTE   UNIT     CODE           ?PR?PARAM_GETBULKMV?PARAM
001F31H   001F39H   000009H   BYTE   UNIT     CODE           ?PR?PARAM_GETFLOATMV?PARAM
001F3AH   001F42H   000009H   BYTE   UNIT     CODE           ?PR?PARAM_GETPWROFFMV?PARAM
001F43H   001F4BH   000009H   BYTE   UNIT     CODE           ?PR?PARAM_GETPWRONMV?PARAM
001F4CH   001F54H   000009H   BYTE   UNIT     CODE           ?PR?PARAM
001F55H   001F5DH   000009H   BYTE   UNIT     CODE           ?PR?_POWER_DISABLEWATCHDOG?POWER
001F5EH   001F66H   000009H   BYTE   UNIT     CODE           ?PR?TIMER_INIT?TIMER
001F67H   001F6DH   000007H   BYTE   UNIT     CODE           ?PR?TIMER_SETUP_0_ENTER_DEFAULTMODE_FROM_RESET?INITDEVICE
001F6EH   001F74H   000007H   BYTE   UNIT     CODE           ?PR?__LED_SETCONSTINTENSITY?LED
001F75H   001F7BH   000007H   BYTE   UNIT     CODE           ?PR?WD_RESET?WATCHDOG
001F7CH   001F81H   000006H   BYTE   UNIT     CODE           ?PR?TIMER2_ISR?TIMER
001F82H   001F86H   000005H   BYTE   UNIT     CODE           ?PR?BUCK_ENABLEBATTERYLIMIT?BUCK
001F87H   001F8AH   000004H   BYTE   UNIT     CODE           ?PR?VREG_0_ENTER_DEFAULTMODE_FROM_RESET?INITDEVICE
001F8BH   001F8EH   000004H   BYTE   UNIT     CODE           ?PR?RSTSRC_0_ENTER_DEFAULTMODE_FROM_RESET?INITDEVICE
001F8FH   001F92H   000004H   BYTE   UNIT     CODE           ?PR?VREF_0_ENTER_DEFAULTMODE_FROM_RESET?INITDEVICE
001F93H   001F96H   000004H   BYTE   UNIT     CODE           ?PR?FLASH_0_ENTER_DEFAULTMODE_FROM_RESET?INITDEVICE
001F97H   001F99H   000003H   BYTE   UNIT     CODE           ?PR?TEMP_INIT?TEMP
001F9AH   001FDBH   000042H   BYTE   UNIT     CONST          ?CO?BUCK
001FDCH   001FFBH   000020H   ---    ---      **GAP**
001FFCH   001FFDH   000002H   ---    OFFS..   CODE           ?CO?ADC_REF_CONST?1
*** OVERLAP ***
001FFCH   001FFDH   000002H   BYTE   OFFS..   CODE           ?CO?ADC?0

* * * * * * * * * * *  X D A T A   M E M O R Y  * * * * * * * * * * * * *
000000H   000027H   000028H   BYTE   INPAGE   PDATA          ?PD?CHARGE
000028H   000046H   00001FH   BYTE   INPAGE   PDATA          _PDATA_GROUP_
000047H   000061H   00001BH   BYTE   INPAGE   PDATA          ?PD?SMBUS
000062H   000070H   00000FH   BYTE   INPAGE   PDATA          ?PD?LED
LX51 LINKER/LOCATER V4.66.97.0                                                        02/10/2023  14:24:31  PAGE 5


000071H   00007AH   00000AH   BYTE   INPAGE   PDATA          ?PD?TEMP
00007BH   000082H   000008H   BYTE   INPAGE   PDATA          ?PD?PARAM
000083H   000088H   000006H   BYTE   INPAGE   PDATA          ?PD?POWER
000089H   00008AH   000002H   BYTE   INPAGE   PDATA          ?PD?TIMER
00008BH   00008BH   000001H   BYTE   INPAGE   PDATA          ?PD?SOLARMPPTCHARGER_MAIN

* * * * * * * * *   R E M O V E D     S E G M E N T S   * * * * * * * *
   *DEL*:           000003H   BYTE   UNIT     CODE           ?PR?SILABS_STARTUP?SOLARMPPTCHARGER_MAIN



OVERLAY MAP OF MODULE:   SOLARMPPTCHARGER.OMF.CRBUILD (INITDEVICE)


FUNCTION/MODULE                                BIT_GROUP   PDATA_GROUP
--> CALLED FUNCTION/MODULE                    START  STOP  START  STOP
======================================================================
?C_C51STARTUP                                 ----- -----  ----- -----
  +--> MAIN/SOLARMPPTCHARGER_MAIN
  +--> ?C_INITSEG

MAIN/SOLARMPPTCHARGER_MAIN                    ----- -----  ----- -----
  +--> ENTER_DEFAULTMODE_FROM_RESET/INITDEVICE
  +--> PARAM_INIT/PARAM
  +--> ADC_INIT/ADC
  +--> BUCK_INIT/BUCK
  +--> CHARGE_INIT/CHARGE
  +--> POWER_INIT/POWER
  +--> TEMP_INIT/TEMP
  +--> WD_INIT/WATCHDOG
  +--> LED_INIT/LED
  +--> SMB_INIT/SMBUS
  +--> TIMER_INIT/TIMER
  +--> WD_RESET/WATCHDOG
  +--> TIMER_UPDATE/TIMER
  +--> LED_UPDATE/LED
  +--> CHARGE_MPPTUPDATE/CHARGE
  +--> TEMP_UPDATE/TEMP
  +--> CHARGE_STATEUPDATE/CHARGE
  +--> POWER_UPDATE/POWER

ENTER_DEFAULTMODE_FROM_RESET/INITDEVICE       ----- -----  0028H 0028H
  +--> PCA_0_ENTER_DEFAULTMODE_FROM_RESET/INITDEVICE
  +--> PCACH_0_ENTER_DEFAULTMODE_FROM_RESET/INITDEVICE
  +--> PCACH_1_ENTER_DEFAULTMODE_FROM_RESET/INITDEVICE
  +--> PCACH_2_ENTER_DEFAULTMODE_FROM_RESET/INITDEVICE
  +--> VREG_0_ENTER_DEFAULTMODE_FROM_RESET/INITDEVICE
  +--> PORTS_0_ENTER_DEFAULTMODE_FROM_RESET/INITDEVICE
  +--> PORTS_1_ENTER_DEFAULTMODE_FROM_RESET/INITDEVICE
  +--> PBCFG_0_ENTER_DEFAULTMODE_FROM_RESET/INITDEVICE
  +--> RSTSRC_0_ENTER_DEFAULTMODE_FROM_RESET/INITDEVICE
  +--> HFOSC_0_ENTER_DEFAULTMODE_FROM_RESET/INITDEVICE
  +--> CLOCK_0_ENTER_DEFAULTMODE_FROM_RESET/INITDEVICE
  +--> FLASH_0_ENTER_DEFAULTMODE_FROM_RESET/INITDEVICE
  +--> TIMER01_0_ENTER_DEFAULTMODE_FROM_RESET/INITDEVICE
  +--> TIMER16_2_ENTER_DEFAULTMODE_FROM_RESET/INITDEVICE
  +--> TIMER_SETUP_0_ENTER_DEFAULTMODE_FROM_RESET/INITDEVICE
  +--> ADC_0_ENTER_DEFAULTMODE_FROM_RESET/INITDEVICE
  +--> VREF_0_ENTER_DEFAULTMODE_FROM_RESET/INITDEVICE
  +--> SMBUS_0_ENTER_DEFAULTMODE_FROM_RESET/INITDEVICE
  +--> INTERRUPT_0_ENTER_DEFAULTMODE_FROM_RESET/INITDEVICE

LX51 LINKER/LOCATER V4.66.97.0                                                        02/10/2023  14:24:31  PAGE 6


PCA_0_ENTER_DEFAULTMODE_FROM_RESET/INITD+     ----- -----  ----- -----
... EVICE

PCACH_0_ENTER_DEFAULTMODE_FROM_RESET/INI+     ----- -----  ----- -----
... TDEVICE

PCACH_1_ENTER_DEFAULTMODE_FROM_RESET/INI+     ----- -----  ----- -----
... TDEVICE

PCACH_2_ENTER_DEFAULTMODE_FROM_RESET/INI+     ----- -----  ----- -----
... TDEVICE

VREG_0_ENTER_DEFAULTMODE_FROM_RESET/INIT+     ----- -----  ----- -----
... DEVICE

PORTS_0_ENTER_DEFAULTMODE_FROM_RESET/INI+     ----- -----  ----- -----
... TDEVICE

PORTS_1_ENTER_DEFAULTMODE_FROM_RESET/INI+     ----- -----  ----- -----
... TDEVICE

PBCFG_0_ENTER_DEFAULTMODE_FROM_RESET/INI+     ----- -----  ----- -----
... TDEVICE

RSTSRC_0_ENTER_DEFAULTMODE_FROM_RESET/IN+     ----- -----  ----- -----
... ITDEVICE

HFOSC_0_ENTER_DEFAULTMODE_FROM_RESET/INI+     ----- -----  ----- -----
... TDEVICE

CLOCK_0_ENTER_DEFAULTMODE_FROM_RESET/INI+     ----- -----  ----- -----
... TDEVICE

FLASH_0_ENTER_DEFAULTMODE_FROM_RESET/INI+     ----- -----  ----- -----
... TDEVICE

TIMER01_0_ENTER_DEFAULTMODE_FROM_RESET/I+     ----- -----  ----- -----
... NITDEVICE

TIMER16_2_ENTER_DEFAULTMODE_FROM_RESET/I+     ----- -----  ----- -----
... NITDEVICE

TIMER_SETUP_0_ENTER_DEFAULTMODE_FROM_RES+     ----- -----  ----- -----
... ET/INITDEVICE

ADC_0_ENTER_DEFAULTMODE_FROM_RESET/INITD+     ----- -----  ----- -----
... EVICE

VREF_0_ENTER_DEFAULTMODE_FROM_RESET/INIT+     ----- -----  ----- -----
... DEVICE

SMBUS_0_ENTER_DEFAULTMODE_FROM_RESET/INI+     ----- -----  ----- -----
... TDEVICE

INTERRUPT_0_ENTER_DEFAULTMODE_FROM_RESET+     ----- -----  ----- -----
... /INITDEVICE

PARAM_INIT/PARAM                              ----- -----  ----- -----

ADC_INIT/ADC                                  ----- -----  ----- -----
  +--> __ADC_DELAYMSEC/ADC
  +--> __ADC_GETSINGLEREADING/ADC
LX51 LINKER/LOCATER V4.66.97.0                                                        02/10/2023  14:24:31  PAGE 7


  +--> ADC

__ADC_DELAYMSEC/ADC                           ----- -----  0028H 0028H
  +--> WD_RESET/WATCHDOG

WD_RESET/WATCHDOG                             ----- -----  ----- -----

__ADC_GETSINGLEREADING/ADC                    ----- -----  ----- -----
  +--> __ADC_DELAYMSEC/ADC

ADC                                           ----- -----  ----- -----

BUCK_INIT/BUCK                                ----- -----  ----- -----
  +--> BUCK
  +--> PARAM_GETFLOATMV/PARAM
  +--> _BUCK_UPDATEPWMOUTPUT/BUCK

BUCK                                          ----- -----  ----- -----

PARAM_GETFLOATMV/PARAM                        ----- -----  ----- -----
  +--> PARAM

PARAM                                         ----- -----  ----- -----

_BUCK_UPDATEPWMOUTPUT/BUCK                    ----- -----  ----- -----

CHARGE_INIT/CHARGE                            ----- -----  ----- -----
  +--> PARAM_GETFLOATMV/PARAM
  +--> CHARGE
  +--> _ADC_GETVALUE/ADC

CHARGE                                        ----- -----  ----- -----

_ADC_GETVALUE/ADC                             ----- -----  002CH 002DH
  +--> ADC
  +--> __ADC2MV/ADC
  +--> __ADC2MA/ADC
  +--> __ADC2INTT10/ADC
  +--> __ADC2EXTT10/ADC

__ADC2MV/ADC                                  ----- -----  002EH 0031H
  +--> ADC

__ADC2MA/ADC                                  ----- -----  002EH 0031H
  +--> ADC

__ADC2INTT10/ADC                              ----- -----  002EH 0033H
  +--> ADC

__ADC2EXTT10/ADC                              ----- -----  002EH 0033H
  +--> ADC

POWER_INIT/POWER                              ----- -----  ----- -----
  +--> _ADC_GETVALUE/ADC
  +--> POWER
  +--> PARAM_GETPWROFFMV/PARAM

POWER                                         ----- -----  ----- -----

PARAM_GETPWROFFMV/PARAM                       ----- -----  ----- -----
  +--> PARAM

LX51 LINKER/LOCATER V4.66.97.0                                                        02/10/2023  14:24:31  PAGE 8


TEMP_INIT/TEMP                                ----- -----  ----- -----
  +--> TEMP_UPDATE/TEMP

TEMP_UPDATE/TEMP                              ----- -----  0028H 002BH
  +--> _ADC_GETVALUE/ADC
  +--> _ABS/ABS
  +--> TEMP
  +--> PARAM_GETFLOATMV/PARAM
  +--> PARAM_GETBULKMV/PARAM
  +--> _SMB_SETSTATUSBIT/SMBUS
  +--> _SMB_SETINDEXEDVALUE/SMBUS

_ABS/ABS                                      ----- -----  ----- -----

TEMP                                          ----- -----  ----- -----

PARAM_GETBULKMV/PARAM                         ----- -----  ----- -----
  +--> PARAM

_SMB_SETSTATUSBIT/SMBUS                       21H.5 21H.5  ----- -----

_SMB_SETINDEXEDVALUE/SMBUS                    ----- -----  ----- -----

WD_INIT/WATCHDOG                              ----- -----  ----- -----

LED_INIT/LED                                  ----- -----  0028H 0028H
  +--> __LED_SETCONSTINTENSITY/LED
  +--> _LED_RETURNFAULTINFO/LED
  +--> __LED_SETUPFAULT/LED
  +--> _LED_RETURNCURNORMALSTATE/LED
  +--> __LED_SETNORMALSTATE/LED

__LED_SETCONSTINTENSITY/LED                   ----- -----  ----- -----
  +--> _LED_SETCURPWM2LED/LED

_LED_SETCURPWM2LED/LED                        ----- -----  ----- -----

_LED_RETURNFAULTINFO/LED                      ----- -----  ----- -----

__LED_SETUPFAULT/LED                          ----- -----  0029H 0029H
  +--> __LED_SETUPBLINK/LED
  +--> _LED_SETCURPWM2LED/LED

__LED_SETUPBLINK/LED                          ----- -----  ----- -----

_LED_RETURNCURNORMALSTATE/LED                 ----- -----  ----- -----

__LED_SETNORMALSTATE/LED                      ----- -----  ----- -----
  +--> __LED_SETUPBLINK/LED
  +--> _LED_SETUPPULSE/LED
  +--> _LED_SETCURPWM2LED/LED

_LED_SETUPPULSE/LED                           ----- -----  0029H 002CH
  +--> LED

LED                                           ----- -----  ----- -----

SMB_INIT/SMBUS                                ----- -----  0028H 002AH
  +--> SMBUS
  +--> _SMB_GETINITSTATUS/SMBUS

SMBUS                                         ----- -----  ----- -----
LX51 LINKER/LOCATER V4.66.97.0                                                        02/10/2023  14:24:31  PAGE 9



_SMB_GETINITSTATUS/SMBUS                      ----- -----  002BH 002CH
  +--> POWER_WATCHDOGRUNNING/POWER
  +--> SMBUS

POWER_WATCHDOGRUNNING/POWER                   ----- -----  ----- -----

TIMER_INIT/TIMER                              ----- -----  ----- -----

TIMER_UPDATE/TIMER                            ----- -----  ----- -----

LED_UPDATE/LED                                ----- -----  0028H 0028H
  +--> _LED_RETURNFAULTINFO/LED
  +--> _LED_RETURNCURNORMALSTATE/LED
  +--> __LED_SETUPFAULT/LED
  +--> __LED_SETNORMALSTATE/LED
  +--> _LED_DOPULSE/LED
  +--> _LED_DOBLINK/LED

_LED_DOPULSE/LED                              ----- -----  ----- -----
  +--> _LED_SETUPPULSE/LED
  +--> _LED_SETCURPWM2LED/LED

_LED_DOBLINK/LED                              ----- -----  ----- -----
  +--> LED
  +--> __LED_SETCONSTINTENSITY/LED

CHARGE_MPPTUPDATE/CHARGE                      21H.3 21H.3  ----- -----
  +--> _ADC_GETVALUE/ADC
  +--> _CHARGE_COMPUTEPOWER/CHARGE
  +--> _CHARGE_COMPUTECHARGECURRENT/CHARGE
  +--> _BUCK_SETSOLARVOLTAGE/BUCK
  +--> CHARGE
  +--> _CHARGE_DECMPPTREGVOLTAGE/CHARGE
  +--> _CHARGE_INCMPPTREGVOLTAGE/CHARGE
  +--> _SMB_SETINDEXEDVALUE/SMBUS

_CHARGE_COMPUTEPOWER/CHARGE                   ----- -----  ----- -----
  +--> CHARGE

_CHARGE_COMPUTECHARGECURRENT/CHARGE           ----- -----  0028H 002BH
  +--> CHARGE
  +--> _BUCK_GETEFFICIENCY/BUCK

_BUCK_GETEFFICIENCY/BUCK                      ----- -----  ----- -----

_BUCK_SETSOLARVOLTAGE/BUCK                    ----- -----  ----- -----

_CHARGE_DECMPPTREGVOLTAGE/CHARGE              ----- -----  ----- -----
  +--> CHARGE

_CHARGE_INCMPPTREGVOLTAGE/CHARGE              ----- -----  ----- -----
  +--> CHARGE

CHARGE_STATEUPDATE/CHARGE                     21H.3 21H.3  ----- -----
  +--> CHARGE
  +--> __CHARGE_SETSTATE/CHARGE
  +--> BUCK_ENABLEREGULATE/BUCK
  +--> _CHARGE_ADJUSTCOMPBATTV/CHARGE
  +--> _SMB_SETSTATUSBIT/SMBUS
  +--> _SMB_SETINDEXEDVALUE/SMBUS

LX51 LINKER/LOCATER V4.66.97.0                                                        02/10/2023  14:24:31  PAGE 10


__CHARGE_SETSTATE/CHARGE                      ----- -----  ----- -----
  +--> CHARGE
  +--> __CHARGE_STARTSCAN/CHARGE
  +--> _CHARGE_SETREGULATE/CHARGE
  +--> _SMB_SETSTATUSCHARGESTATE/SMBUS

__CHARGE_STARTSCAN/CHARGE                     ----- -----  ----- -----
  +--> _BUCK_SETSOLARVOLTAGE/BUCK
  +--> BUCK_ENABLEBATTERYLIMIT/BUCK
  +--> BUCK_ENABLEREGULATE/BUCK

BUCK_ENABLEBATTERYLIMIT/BUCK                  21H.5 21H.5  ----- -----

BUCK_ENABLEREGULATE/BUCK                      21H.5 21H.5  0028H 002BH
  +--> _BUCK_UPDATEPWMOUTPUT/BUCK
  +--> BUCK
  +--> _SMB_SETBUCKSTATUS/SMBUS

_SMB_SETBUCKSTATUS/SMBUS                      ----- -----  ----- -----

_CHARGE_SETREGULATE/CHARGE                    21H.4 21H.4  ----- -----
  +--> _BUCK_SETSOLARVOLTAGE/BUCK
  +--> CHARGE
  +--> _BUCK_SETBATTVOLTAGE/BUCK
  +--> BUCK_ENABLEBATTERYLIMIT/BUCK
  +--> BUCK_ENABLEREGULATE/BUCK

_BUCK_SETBATTVOLTAGE/BUCK                     ----- -----  ----- -----

_SMB_SETSTATUSCHARGESTATE/SMBUS               ----- -----  ----- -----

_CHARGE_ADJUSTCOMPBATTV/CHARGE                ----- -----  ----- -----
  +--> CHARGE
  +--> _BUCK_SETBATTVOLTAGE/BUCK

POWER_UPDATE/POWER                            21H.3 21H.4  ----- -----
  +--> POWER_WATCHDOGRUNNING/POWER
  +--> POWER
  +--> PARAM_GETPWRONMV/PARAM
  +--> PARAM_GETPWROFFMV/PARAM
  +--> _SMB_SETSTATUSBIT/SMBUS
  +--> _POWER_DISABLEWATCHDOG/POWER

PARAM_GETPWRONMV/PARAM                        ----- -----  ----- -----
  +--> PARAM

_POWER_DISABLEWATCHDOG/POWER                  ----- -----  ----- -----
  +--> POWER

?C_INITSEG                                    ----- -----  ----- -----

*** NEW ROOT ********************************

TIMER0_ISR/ADC                                ----- -----  ----- -----
  +--> BUCK_UPDATE/BUCK

BUCK_UPDATE/BUCK                              ----- -----  0034H 0037H
  +--> _ADC_GETVALUEFORISR/ADC
  +--> BUCK
  +--> _BUCK_UPDATEPWMOUTPUT/BUCK
  +--> _SMB_SETBUCKSTATUS/SMBUS

LX51 LINKER/LOCATER V4.66.97.0                                                        02/10/2023  14:24:31  PAGE 11


_ADC_GETVALUEFORISR/ADC                       ----- -----  ----- -----
  +--> __ADCISR2MA/ADC
  +--> __ADCISR2MV/ADC

__ADCISR2MA/ADC                               ----- -----  0038H 003BH
  +--> ADC

__ADCISR2MV/ADC                               ----- -----  0038H 003BH
  +--> ADC

*** NEW ROOT ********************************

ADC0EOC_ISR/ADC                               ----- -----  ----- -----
  +--> __ADC_PUSHFILTEREDVAL/ADC
  +--> __ADC_PUSHTEMP/ADC

__ADC_PUSHFILTEREDVAL/ADC                     ----- -----  003CH 003EH
  +--> ADC

__ADC_PUSHTEMP/ADC                            ----- -----  003CH 003DH
  +--> ADC

*** NEW ROOT ********************************

SMBUS0_ISR/SMBUS                              ----- -----  ----- -----
  +--> __SMB_WRITEREGISTER/SMBUS
  +--> __SMB_READREGISTER/SMBUS

__SMB_WRITEREGISTER/SMBUS                     ----- -----  003FH 0042H
  +--> _PARAM_SETINDEXEDVALUE/PARAM
  +--> POWER_ENABLEWATCHDOG/POWER
  +--> _POWER_SETWATCHDOGTIMEOUT/POWER
  +--> _POWER_SETWATCHDOGPWROFFTO/POWER

_PARAM_SETINDEXEDVALUE/PARAM                  ----- -----  0043H 0044H
  +--> __PARAM_VALIDATENEWVALUE/PARAM

__PARAM_VALIDATENEWVALUE/PARAM                ----- -----  0045H 0046H

POWER_ENABLEWATCHDOG/POWER                    21H.6 21H.6  ----- -----
  +--> _POWER_DISABLEWATCHDOG/POWER

_POWER_SETWATCHDOGTIMEOUT/POWER               ----- -----  ----- -----

_POWER_SETWATCHDOGPWROFFTO/POWER              ----- -----  ----- -----

__SMB_READREGISTER/SMBUS                      21H.6 21H.6  003FH 0040H
  +--> _PARAM_GETINDEXEDVALUE/PARAM

_PARAM_GETINDEXEDVALUE/PARAM                  ----- -----  ----- -----

*** NEW ROOT ********************************

TIMER2_ISR/TIMER                              ----- -----  ----- -----



PUBLIC SYMBOLS OF MODULE:  SOLARMPPTCHARGER.OMF.CRBUILD (INITDEVICE)


      VALUE       CLASS    TYPE      PUBLIC SYMBOL NAME
      =================================================
LX51 LINKER/LOCATER V4.66.97.0                                                        02/10/2023  14:24:31  PAGE 12


      00000021H.4 BIT      BIT       ?_CHARGE_SetRegulate?BIT
      00000021H.5 BIT      BIT       ?_SMB_SetStatusBit?BIT
      00000021H.5 BIT      BIT       ?BUCK_EnableBatteryLimit?BIT
      00000021H.5 BIT      BIT       ?BUCK_EnableRegulate?BIT
      00000000H   NUMBER   ---       ?C?CODESEG
      010000ABH   CODE     ---       ?C?ISTPTR
      01000285H   CODE     ---       ?C?LIMUL
      01000248H   CODE     ---       ?C?LLDIDATA
      010000CAH   CODE     ---       ?C?LMUL
      01000235H   CODE     ---       ?C?LSHL
      01000254H   CODE     ---       ?C?LSTIDATA
      0100026CH   CODE     ---       ?C?LSTKPDATA
      01000260H   CODE     ---       ?C?LSTPDATA
      010001E7H   CODE     ---       ?C?SLCMP
      01001921H   CODE     ---       ?C?SLDIV
      01000221H   CODE     ---       ?C?SLSHR
      01000056H   CODE     ---       ?C?UIDIV
      010001FDH   CODE     ---       ?C?ULCMP
      01000155H   CODE     ---       ?C?ULDIV
      0100020EH   CODE     ---       ?C?ULSHR
      00000000H   NUMBER   ---       ?C?XDATASEG
      010010C6H   CODE     ---       ?C_START
      01000000H   CODE     NEAR LAB  ?C_STARTUP
      00000021H.6 BIT      BIT       ?POWER_EnableWatchdog?BIT
      01001843H   CODE     ---       __adc2ExtT10
      01000EB8H   CODE     ---       __adc2IntT10
      01001C0BH   CODE     ---       __adc2mA
      01001CD7H   CODE     ---       __adc2mV
      01001A17H   CODE     ---       __ADC_DelayMsec
      01001DB7H   CODE     ---       __ADC_GetSingleReading
      010012A0H   CODE     ---       __ADC_PushFilteredVal
      01000FEFH   CODE     ---       __ADC_PushTemp
      01001B77H   CODE     ---       __adcIsr2mA
      01001CF6H   CODE     ---       __adcIsr2mV
      010014E5H   CODE     ---       __CHARGE_SetState
      01001B28H   CODE     ---       __CHARGE_StartScan
      01001F6EH   CODE     ---       __LED_SetConstIntensity
      01001A49H   CODE     ---       __LED_SetNormalState
      01001C95H   CODE     ---       __LED_SetupBlink
      01001965H   CODE     ---       __LED_SetupFault
      01001C51H   CODE     ---       __PARAM_ValidateNewValue
      01000E15H   CODE     ---       __SMB_ReadRegister
      01001409H   CODE     ---       __SMB_WriteRegister
      01001EEAH   CODE     ---       _ABS
      010017F1H   CODE     ---       _ADC_GetValue
      01001B50H   CODE     ---       _ADC_GetValueForIsr
      01001AA9H   CODE     ---       _BUCK_GetEfficiency
      01001EDEH   CODE     ---       _BUCK_SetBattVoltage
      01001ED2H   CODE     ---       _BUCK_SetSolarVoltage
      01001B9DH   CODE     ---       _BUCK_UpdatePwmOutput
      01001E65H   CODE     ---       _CHARGE_AdjustCompBattV
      01000F5AH   CODE     ---       _CHARGE_ComputeChargeCurrent
      01001C2EH   CODE     ---       _CHARGE_ComputePower
      01001D4FH   CODE     ---       _CHARGE_DecMpptRegVoltage
      01001D15H   CODE     ---       _CHARGE_IncMpptRegVoltage
      01001BC3H   CODE     ---       _CHARGE_SetRegulate
      01001396H   CODE     ---       _LED_DoBlink
      010016E7H   CODE     ---       _LED_DoPulse
      01001D9EH   CODE     ---       _LED_ReturnCurNormalState
      01001DE1H   CODE     ---       _LED_ReturnFaultInfo
      01001AD5H   CODE     ---       _LED_SetCurPwm2Led
      01001195H   CODE     ---       _LED_SetupPulse
LX51 LINKER/LOCATER V4.66.97.0                                                        02/10/2023  14:24:31  PAGE 13


      01001AFFH   CODE     ---       _PARAM_GetIndexedValue
      01001478H   CODE     ---       _PARAM_SetIndexedValue
      01001F55H   CODE     ---       _POWER_DisableWatchdog
      01001E41H   CODE     ---       _POWER_SetWatchdogPwrOffTO
      01001E84H   CODE     ---       _POWER_SetWatchdogTimeout
      0100110BH   CODE     ---       _SMB_GetInitStatus
      01001E92H   CODE     ---       _SMB_SetBuckStatus
      01001E53H   CODE     ---       _SMB_SetIndexedValue
      01001CB6H   CODE     ---       _SMB_SetStatusBit
      01001D6AH   CODE     ---       _SMB_SetStatusChargeState
*SFR* 000000E0H   DATA     BYTE      ACC
*SFR* 000000E0H.0 DATA     BIT       ACC_ACC0
*SFR* 000000E0H.1 DATA     BIT       ACC_ACC1
*SFR* 000000E0H.2 DATA     BIT       ACC_ACC2
*SFR* 000000E0H.3 DATA     BIT       ACC_ACC3
*SFR* 000000E0H.4 DATA     BIT       ACC_ACC4
*SFR* 000000E0H.5 DATA     BIT       ACC_ACC5
*SFR* 000000E0H.6 DATA     BIT       ACC_ACC6
*SFR* 000000E0H.7 DATA     BIT       ACC_ACC7
*SFR* 000000BDH   DATA     WORD      ADC0
*SFR* 000000BAH   DATA     BYTE      ADC0AC
*SFR* 00000097H   DATA     BYTE      ADC0CF
*SFR* 000000E8H   DATA     BYTE      ADC0CN0
*SFR* 000000E8H.6 DATA     BIT       ADC0CN0_ADBMEN
*SFR* 000000E8H.4 DATA     BIT       ADC0CN0_ADBUSY
*SFR* 000000E8H.0 DATA     BIT       ADC0CN0_ADCM0
*SFR* 000000E8H.1 DATA     BIT       ADC0CN0_ADCM1
*SFR* 000000E8H.2 DATA     BIT       ADC0CN0_ADCM2
*SFR* 000000E8H.7 DATA     BIT       ADC0CN0_ADEN
*SFR* 000000E8H.5 DATA     BIT       ADC0CN0_ADINT
*SFR* 000000E8H.3 DATA     BIT       ADC0CN0_ADWINT
      01000C70H   CODE     ---       ADC0EOC_ISR
*SFR* 000000C3H   DATA     WORD      ADC0GT
*SFR* 000000C4H   DATA     BYTE      ADC0GTH
*SFR* 000000C3H   DATA     BYTE      ADC0GTL
*SFR* 000000BEH   DATA     BYTE      ADC0H
*SFR* 000000BDH   DATA     BYTE      ADC0L
*SFR* 000000C5H   DATA     WORD      ADC0LT
*SFR* 000000C6H   DATA     BYTE      ADC0LTH
*SFR* 000000C5H   DATA     BYTE      ADC0LTL
*SFR* 00000096H   DATA     BYTE      ADC0MX
*SFR* 000000BBH   DATA     BYTE      ADC0PWR
*SFR* 000000BCH   DATA     BYTE      ADC0TK
      0100003EH   CODE     ---       ADC_0_enter_DefaultMode_from_RESET
      01000B8FH   CODE     ---       ADC_Init
      00000034H   IDATA    BYTE      adcBuckEvalCount
      00000024H   IDATA    ---       adcFilteredAdcVal
      00000035H   IDATA    ---       adcFilterSum
      0000002DH   IDATA    BYTE      adcMeasIndex
      0000002CH   IDATA    BYTE      adcStoredMeasIndex
      00000048H   IDATA    ---       adcTempAvgArray
      00000047H   IDATA    BYTE      adcTempAvgIndex
      00000032H   IDATA    WORD      adcTempExtAvgAdcVal
      00000030H   IDATA    WORD      adcTempIntAvgAdcVal
      00000045H   IDATA    WORD      adcTempMeasCount
      0000002FH   IDATA    BYTE      adcTempSensorIndex
      0000002EH   IDATA    BYTE      adcTimer0Reload
      00000022H.5 BIT      BIT       adcTimer0ReloadInc
      01001FFCH   CODE     INT       adcVRefMv
*SFR* 00000080H.0 DATA     BIT       AUX
*SFR* 000000F0H   DATA     BYTE      B
*SFR* 000000F0H.0 DATA     BIT       B_B0
LX51 LINKER/LOCATER V4.66.97.0                                                        02/10/2023  14:24:31  PAGE 14


*SFR* 000000F0H.1 DATA     BIT       B_B1
*SFR* 000000F0H.2 DATA     BIT       B_B2
*SFR* 000000F0H.3 DATA     BIT       B_B3
*SFR* 000000F0H.4 DATA     BIT       B_B4
*SFR* 000000F0H.5 DATA     BIT       B_B5
*SFR* 000000F0H.6 DATA     BIT       B_B6
*SFR* 000000F0H.7 DATA     BIT       B_B7
      01001F82H   CODE     ---       BUCK_EnableBatteryLimit
      01001551H   CODE     ---       BUCK_EnableRegulate
      01001D34H   CODE     ---       BUCK_Init
      01000AAAH   CODE     ---       BUCK_Update
      0000000AH   IDATA    WORD      buckBattRegMv
      0000000CH   IDATA    WORD      buckCurVal
      01001F9AH   CONST    ---       buckEffPowerPoints
      01001FC6H   CONST    ---       buckEffValues
      00000021H.1 BIT      BIT       buckEnable
      00000020H.7 BIT      BIT       buckLimit1
      00000021H.0 BIT      BIT       buckLimit2
      00000021H.2 BIT      BIT       buckLimitEnable
      00000008H   IDATA    WORD      buckSolarRegMv
      01001895H   CODE     ---       CHARGE_Init
      01000705H   CODE     ---       CHARGE_MpptUpdate
      010002B2H   CODE     ---       CHARGE_StateUpdate
      0200000DH   PDATA    BYTE      chargeAbsTermCount
      0200000EH   PDATA    WORD      chargeCompThreshMv
      02000026H   PDATA    WORD      chargeHighCount
      02000010H   PDATA    BYTE      chargeLowProdCount
      0200000BH   PDATA    WORD      chargeMaxPower
      02000011H   PDATA    WORD      chargeMaxScanVSetpoint
      00000022H.0 BIT      BIT       chargeMpptEnable
      00000022H.1 BIT      BIT       chargeMpptScanEnable
      02000020H   PDATA    WORD      chargeMpptStepMv
      02000013H   PDATA    WORD      chargeScanEndMv
      02000015H   PDATA    WORD      chargeSolarRegMv
      0200001FH   PDATA    BYTE      chargeState
      00000021H.7 BIT      BIT       chargeTempLimited
      0200001BH   PDATA    WORD      chargeTimeoutCount
*SFR* 0000008EH   DATA     BYTE      CKCON0
*SFR* 000000A9H   DATA     BYTE      CLKSEL
      01001EBAH   CODE     ---       CLOCK_0_enter_DefaultMode_from_RESET
*SFR* 0000009BH   DATA     BYTE      CMP0CN0
*SFR* 0000009DH   DATA     BYTE      CMP0MD
*SFR* 0000009FH   DATA     BYTE      CMP0MX
*SFR* 0000009EH   DATA     BYTE      CRC0AUTO
*SFR* 00000084H   DATA     BYTE      CRC0CN0
*SFR* 0000009AH   DATA     BYTE      CRC0CNT
*SFR* 00000086H   DATA     BYTE      CRC0DAT
*SFR* 0000009CH   DATA     BYTE      CRC0FLIP
*SFR* 00000085H   DATA     BYTE      CRC0IN
*SFR* 000000AAH   DATA     BYTE      CS0CF
*SFR* 000000B0H   DATA     BYTE      CS0CN0
*SFR* 000000B0H.4 DATA     BIT       CS0CN0_CSBUSY
*SFR* 000000B0H.3 DATA     BIT       CS0CN0_CSCMPEN
*SFR* 000000B0H.0 DATA     BIT       CS0CN0_CSCMPF
*SFR* 000000B0H.7 DATA     BIT       CS0CN0_CSEN
*SFR* 000000B0H.6 DATA     BIT       CS0CN0_CSEOS
*SFR* 000000B0H.5 DATA     BIT       CS0CN0_CSINT
*SFR* 000000B0H.1 DATA     BIT       CS0CN0_CSPME
*SFR* 000000EEH   DATA     BYTE      CS0DH
*SFR* 000000EDH   DATA     BYTE      CS0DL
*SFR* 000000AFH   DATA     BYTE      CS0MD1
*SFR* 000000F3H   DATA     BYTE      CS0MD2
LX51 LINKER/LOCATER V4.66.97.0                                                        02/10/2023  14:24:31  PAGE 15


*SFR* 000000F3H   DATA     BYTE      CS0MD3
*SFR* 000000ABH   DATA     BYTE      CS0MX
*SFR* 000000DEH   DATA     BYTE      CS0PM
*SFR* 000000D2H   DATA     BYTE      CS0SCAN0
*SFR* 000000D3H   DATA     BYTE      CS0SCAN1
*SFR* 000000DEH   DATA     BYTE      CS0SE
*SFR* 000000DDH   DATA     BYTE      CS0SS
*SFR* 000000FEH   DATA     BYTE      CS0THH
*SFR* 000000FDH   DATA     BYTE      CS0THL
*SFR* 000000E3H   DATA     BYTE      DERIVID
*SFR* 00000082H   DATA     WORD      DP
*SFR* 00000083H   DATA     BYTE      DPH
*SFR* 00000082H   DATA     BYTE      DPL
*SFR* 000000E6H   DATA     BYTE      EIE1
*SFR* 000000E7H   DATA     BYTE      EIE2
*SFR* 000000F6H   DATA     BYTE      EIP1
*SFR* 000000F7H   DATA     BYTE      EIP2
      010018DDH   CODE     ---       enter_DefaultMode_from_RESET
      01001F93H   CODE     ---       FLASH_0_enter_DefaultMode_from_RESET
*SFR* 000000B7H   DATA     BYTE      FLKEY
*SFR* 000000B6H   DATA     BYTE      FLSCL
*SFR* 000000B3H   DATA     BYTE      HFO0CAL
*SFR* 000000B2H   DATA     BYTE      HFO0CN
      01001F0AH   CODE     ---       HFOSC_0_enter_DefaultMode_from_RESET
      02000017H   PDATA    WORD      i_b_ma
      02000019H   PDATA    INT       i_c_ma
      0200001DH   PDATA    WORD      i_s_ma
*SFR* 000000A8H   DATA     BYTE      IE
*SFR* 000000A8H.7 DATA     BIT       IE_EA
*SFR* 000000A8H.4 DATA     BIT       IE_ES0
*SFR* 000000A8H.6 DATA     BIT       IE_ESPI0
*SFR* 000000A8H.1 DATA     BIT       IE_ET0
*SFR* 000000A8H.3 DATA     BIT       IE_ET1
*SFR* 000000A8H.5 DATA     BIT       IE_ET2
*SFR* 000000A8H.0 DATA     BIT       IE_EX0
*SFR* 000000A8H.2 DATA     BIT       IE_EX1
      01001F14H   CODE     ---       INTERRUPT_0_enter_DefaultMode_from_RESET
*SFR* 00000090H.0 DATA     BIT       IO_ALERT_N_O
*SFR* 00000090H.7 DATA     BIT       IO_BATT_TYPE_I
*SFR* 00000080H.7 DATA     BIT       IO_NIGHT_O
*SFR* 00000090H.5 DATA     BIT       IO_PCTRL_I
*SFR* 00000080H.6 DATA     BIT       IO_PWR_EN_O
*SFR* 000000B8H   DATA     BYTE      IP
*SFR* 000000B8H.4 DATA     BIT       IP_PS0
*SFR* 000000B8H.6 DATA     BIT       IP_PSPI0
*SFR* 000000B8H.1 DATA     BIT       IP_PT0
*SFR* 000000B8H.3 DATA     BIT       IP_PT1
*SFR* 000000B8H.5 DATA     BIT       IP_PT2
*SFR* 000000B8H.0 DATA     BIT       IP_PX0
*SFR* 000000B8H.2 DATA     BIT       IP_PX1
*SFR* 000000B9H   DATA     BYTE      IREF0CF
*SFR* 000000D6H   DATA     BYTE      IREF0CN0
*SFR* 000000E4H   DATA     BYTE      IT01CF
      0200006AH   PDATA    BYTE      LED_blinkState
      02000065H   PDATA    BYTE      LED_curBlinkCount
      02000064H   PDATA    BYTE      LED_curFault
      0200006FH   PDATA    WORD      LED_curPeriod
      02000069H   PDATA    BYTE      LED_curPwm
      02000066H   PDATA    BYTE      LED_curState
      01001BE7H   CODE     ---       LED_Init
      0200006DH   PDATA    WORD      LED_maxPeriod
      02000062H   PDATA    WORD      LED_pulseInc
LX51 LINKER/LOCATER V4.66.97.0                                                        02/10/2023  14:24:31  PAGE 16


      02000067H   PDATA    BYTE      LED_pulseMax
      0200006BH   PDATA    WORD      LED_pulseValue
      02000068H   PDATA    BYTE      LED_totBlinkCount
      0100179CH   CODE     ---       LED_Update
      01001743H   CODE     ---       main
      0200008BH   PDATA    BYTE      mainEvalPhase
*SFR* 00000080H   DATA     BYTE      P0
*SFR* 00000080H.0 DATA     BIT       P0_B0
*SFR* 00000080H.1 DATA     BIT       P0_B1
*SFR* 00000080H.2 DATA     BIT       P0_B2
*SFR* 00000080H.3 DATA     BIT       P0_B3
*SFR* 00000080H.4 DATA     BIT       P0_B4
*SFR* 00000080H.5 DATA     BIT       P0_B5
*SFR* 00000080H.6 DATA     BIT       P0_B6
*SFR* 00000080H.7 DATA     BIT       P0_B7
*SFR* 00000099H   DATA     BYTE      P0DRV
*SFR* 000000C7H   DATA     BYTE      P0MASK
*SFR* 000000D7H   DATA     BYTE      P0MAT
*SFR* 000000F1H   DATA     BYTE      P0MDIN
*SFR* 000000A4H   DATA     BYTE      P0MDOUT
*SFR* 000000D4H   DATA     BYTE      P0SKIP
*SFR* 00000090H   DATA     BYTE      P1
*SFR* 00000090H.0 DATA     BIT       P1_B0
*SFR* 00000090H.1 DATA     BIT       P1_B1
*SFR* 00000090H.2 DATA     BIT       P1_B2
*SFR* 00000090H.3 DATA     BIT       P1_B3
*SFR* 00000090H.4 DATA     BIT       P1_B4
*SFR* 00000090H.5 DATA     BIT       P1_B5
*SFR* 00000090H.6 DATA     BIT       P1_B6
*SFR* 00000090H.7 DATA     BIT       P1_B7
*SFR* 0000009BH   DATA     BYTE      P1DRV
*SFR* 000000BFH   DATA     BYTE      P1MASK
*SFR* 000000CFH   DATA     BYTE      P1MAT
*SFR* 000000F2H   DATA     BYTE      P1MDIN
*SFR* 000000A5H   DATA     BYTE      P1MDOUT
*SFR* 000000D5H   DATA     BYTE      P1SKIP
*SFR* 000000A0H   DATA     BYTE      P2
*SFR* 000000A0H.7 DATA     BIT       P2_B7
*SFR* 0000009DH   DATA     BYTE      P2DRV
*SFR* 000000A6H   DATA     BYTE      P2MDOUT
      00000022H.6 BIT      BIT       PARAM_battIsLeadAcid
      02000081H   PDATA    WORD      PARAM_bulkMv
      0200007FH   PDATA    WORD      PARAM_floatMv
      01001F28H   CODE     ---       PARAM_GetBulkMv
      01001F31H   CODE     ---       PARAM_GetFloatMv
      01001F3AH   CODE     ---       PARAM_GetPwrOffMv
      01001F43H   CODE     ---       PARAM_GetPwrOnMv
      010019A6H   CODE     ---       PARAM_Init
      0200007BH   PDATA    WORD      PARAM_pwrOffMv
      0200007DH   PDATA    WORD      PARAM_pwrOnMv
      0100002EH   CODE     ---       PBCFG_0_enter_DefaultMode_from_RESET
*SFR* 000000F9H   DATA     WORD      PCA0
*SFR* 000000D8H   DATA     BYTE      PCA0CN0
*SFR* 000000D8H.0 DATA     BIT       PCA0CN0_CCF0
*SFR* 000000D8H.1 DATA     BIT       PCA0CN0_CCF1
*SFR* 000000D8H.2 DATA     BIT       PCA0CN0_CCF2
*SFR* 000000D8H.7 DATA     BIT       PCA0CN0_CF
*SFR* 000000D8H.6 DATA     BIT       PCA0CN0_CR
*SFR* 000000FBH   DATA     WORD      PCA0CP0
*SFR* 000000E9H   DATA     WORD      PCA0CP1
*SFR* 000000EBH   DATA     WORD      PCA0CP2
*SFR* 000000FCH   DATA     BYTE      PCA0CPH0
LX51 LINKER/LOCATER V4.66.97.0                                                        02/10/2023  14:24:31  PAGE 17


*SFR* 000000EAH   DATA     BYTE      PCA0CPH1
*SFR* 000000ECH   DATA     BYTE      PCA0CPH2
*SFR* 000000FBH   DATA     BYTE      PCA0CPL0
*SFR* 000000E9H   DATA     BYTE      PCA0CPL1
*SFR* 000000EBH   DATA     BYTE      PCA0CPL2
*SFR* 000000DAH   DATA     BYTE      PCA0CPM0
*SFR* 000000DBH   DATA     BYTE      PCA0CPM1
*SFR* 000000DCH   DATA     BYTE      PCA0CPM2
*SFR* 000000FAH   DATA     BYTE      PCA0H
*SFR* 000000F9H   DATA     BYTE      PCA0L
*SFR* 000000D9H   DATA     BYTE      PCA0MD
*SFR* 000000DFH   DATA     BYTE      PCA0PWM
      01001DF5H   CODE     ---       PCA_0_enter_DefaultMode_from_RESET
      01001EF6H   CODE     ---       PCACH_0_enter_DefaultMode_from_RESET
      01001F00H   CODE     ---       PCACH_1_enter_DefaultMode_from_RESET
      01000003H   CODE     ---       PCACH_2_enter_DefaultMode_from_RESET
*SFR* 00000087H   DATA     BYTE      PCON0
*SFR* 000000B5H   DATA     BYTE      PMU0CF
*SFR* 000000CEH   DATA     BYTE      PMU0FL
*SFR* 000000B5H   DATA     BYTE      PMU0MD
      01001E08H   CODE     ---       PORTS_0_enter_DefaultMode_from_RESET
      01001E1BH   CODE     ---       PORTS_1_enter_DefaultMode_from_RESET
      00000020H.1 BIT      BIT       POWER_badBatt
      00000020H.0 BIT      BIT       POWER_enableAtNight
      01001E76H   CODE     ---       POWER_EnableWatchdog
      0100131CH   CODE     ---       POWER_Init
      00000020H.3 BIT      BIT       POWER_isNight
      02000084H   PDATA    WORD      POWER_offCount
      00000020H.4 BIT      BIT       POWER_powerEnabled
      02000083H   PDATA    BYTE      POWER_state
      0100050CH   CODE     ---       POWER_Update
      02000088H   PDATA    BYTE      POWER_watchdogCount
      00000020H.2 BIT      BIT       POWER_watchdogCountWritten
      00000020H.5 BIT      BIT       POWER_watchdogGlobalEnable
      02000086H   PDATA    WORD      POWER_watchdogPwrOffTO
      01001F1EH   CODE     ---       POWER_WatchdogRunning
      00000020H.6 BIT      BIT       POWER_watchdogTriggered
*SFR* 000000A0H   DATA     BYTE      PPAGE_SFR
*SFR* 0000008FH   DATA     BYTE      PSCTL
*SFR* 000000D0H   DATA     BYTE      PSW
*SFR* 000000D0H.6 DATA     BIT       PSW_AC
*SFR* 000000D0H.7 DATA     BIT       PSW_CY
*SFR* 000000D0H.5 DATA     BIT       PSW_F0
*SFR* 000000D0H.1 DATA     BIT       PSW_F1
*SFR* 000000D0H.2 DATA     BIT       PSW_OV
*SFR* 000000D0H.0 DATA     BIT       PSW_PARITY
*SFR* 000000D0H.3 DATA     BIT       PSW_RS0
*SFR* 000000D0H.4 DATA     BIT       PSW_RS1
*SFR* 000000D1H   DATA     BYTE      REF0CN
*SFR* 000000C9H   DATA     BYTE      REG0CN
*SFR* 000000E2H   DATA     BYTE      REVID
*SFR* 000000EFH   DATA     BYTE      RSTSRC
      01001F8BH   CODE     ---       RSTSRC_0_enter_DefaultMode_from_RESET
*SFR* 000000ACH   DATA     BYTE      RTC0ADR
*SFR* 000000ADH   DATA     BYTE      RTC0DAT
*SFR* 000000AEH   DATA     BYTE      RTC0KEY
*SFR* 00000099H   DATA     BYTE      SBUF0
*SFR* 00000098H   DATA     BYTE      SCON0
*SFR* 00000098H.5 DATA     BIT       SCON0_MCE
*SFR* 00000098H.2 DATA     BIT       SCON0_RB8
*SFR* 00000098H.4 DATA     BIT       SCON0_REN
*SFR* 00000098H.0 DATA     BIT       SCON0_RI
LX51 LINKER/LOCATER V4.66.97.0                                                        02/10/2023  14:24:31  PAGE 18


*SFR* 00000098H.7 DATA     BIT       SCON0_SMODE
*SFR* 00000098H.3 DATA     BIT       SCON0_TB8
*SFR* 00000098H.1 DATA     BIT       SCON0_TI
*SFR* 000000A7H   DATA     BYTE      SFRPAGE
*DEL*:00000000H   CODE     ---       SiLabs_Startup
*SFR* 000000F5H   DATA     BYTE      SMB0ADM
*SFR* 000000F4H   DATA     BYTE      SMB0ADR
*SFR* 000000C1H   DATA     BYTE      SMB0CF
*SFR* 000000C0H   DATA     BYTE      SMB0CN0
*SFR* 000000C0H.1 DATA     BIT       SMB0CN0_ACK
*SFR* 000000C0H.3 DATA     BIT       SMB0CN0_ACKRQ
*SFR* 000000C0H.2 DATA     BIT       SMB0CN0_ARBLOST
*SFR* 000000C0H.7 DATA     BIT       SMB0CN0_MASTER
*SFR* 000000C0H.0 DATA     BIT       SMB0CN0_SI
*SFR* 000000C0H.5 DATA     BIT       SMB0CN0_STA
*SFR* 000000C0H.4 DATA     BIT       SMB0CN0_STO
*SFR* 000000C0H.6 DATA     BIT       SMB0CN0_TXMODE
*SFR* 000000C2H   DATA     BYTE      SMB0DAT
      010015BCH   CODE     ---       SMB_Init
      0200004AH   PDATA    ---       smbRoArray
      01000D4EH   CODE     ---       SMBUS0_ISR
      01001EA0H   CODE     ---       SMBUS_0_enter_DefaultMode_from_RESET
      02000022H   PDATA    WORD      solarPowerMw
      02000005H   PDATA    DWORD     solarPowerUw
*SFR* 00000081H   DATA     BYTE      SP
*SFR* 000000A1H   DATA     BYTE      SPI0CFG
*SFR* 000000A2H   DATA     BYTE      SPI0CKR
*SFR* 000000F8H   DATA     BYTE      SPI0CN0
*SFR* 000000F8H.5 DATA     BIT       SPI0CN0_MODF
*SFR* 000000F8H.2 DATA     BIT       SPI0CN0_NSSMD0
*SFR* 000000F8H.3 DATA     BIT       SPI0CN0_NSSMD1
*SFR* 000000F8H.4 DATA     BIT       SPI0CN0_RXOVRN
*SFR* 000000F8H.0 DATA     BIT       SPI0CN0_SPIEN
*SFR* 000000F8H.7 DATA     BIT       SPI0CN0_SPIF
*SFR* 000000F8H.1 DATA     BIT       SPI0CN0_TXBMT
*SFR* 000000F8H.6 DATA     BIT       SPI0CN0_WCOL
*SFR* 000000A3H   DATA     BYTE      SPI0DAT
*SFR* 00000088H   DATA     BYTE      TCON
*SFR* 00000088H.1 DATA     BIT       TCON_IE0
*SFR* 00000088H.3 DATA     BIT       TCON_IE1
*SFR* 00000088H.0 DATA     BIT       TCON_IT0
*SFR* 00000088H.2 DATA     BIT       TCON_IT1
*SFR* 00000088H.5 DATA     BIT       TCON_TF0
*SFR* 00000088H.7 DATA     BIT       TCON_TF1
*SFR* 00000088H.4 DATA     BIT       TCON_TR0
*SFR* 00000088H.6 DATA     BIT       TCON_TR1
      02000079H   PDATA    WORD      TEMP_compBulkMv
      02000075H   PDATA    WORD      TEMP_compFloatMv
      02000071H   PDATA    INT       TEMP_CurTempC10
      00000023H.0 BIT      BIT       TEMP_extIsMissing
      02000077H   PDATA    INT       TEMP_ExtTempC10
      01001F97H   CODE     ---       TEMP_Init
      02000073H   PDATA    INT       TEMP_IntTempC10
      010008A7H   CODE     ---       TEMP_Update
*SFR* 0000008CH   DATA     BYTE      TH0
*SFR* 0000008DH   DATA     BYTE      TH1
      01001E2EH   CODE     ---       TIMER01_0_enter_DefaultMode_from_RESET
      01001624H   CODE     ---       TIMER0_ISR
      01001D85H   CODE     ---       TIMER16_2_enter_DefaultMode_from_RESET
      01001F7CH   CODE     ---       TIMER2_ISR
      02000089H   PDATA    BYTE      TIMER_FastCount
      00000022H.3 BIT      BIT       TIMER_fastTick
LX51 LINKER/LOCATER V4.66.97.0                                                        02/10/2023  14:24:31  PAGE 19


      01001F5EH   CODE     ---       TIMER_Init
      00000022H.2 BIT      BIT       TIMER_IsrTick
      01001F67H   CODE     ---       TIMER_SETUP_0_enter_DefaultMode_from_RESET
      0200008AH   PDATA    BYTE      TIMER_SlowCount
      00000022H.4 BIT      BIT       TIMER_slowTick
      01001C73H   CODE     ---       TIMER_Update
*SFR* 0000008AH   DATA     BYTE      TL0
*SFR* 0000008BH   DATA     BYTE      TL1
*SFR* 00000089H   DATA     BYTE      TMOD
*SFR* 000000CCH   DATA     WORD      TMR2
*SFR* 000000C8H   DATA     BYTE      TMR2CN0
*SFR* 000000C8H.3 DATA     BIT       TMR2CN0_T2SPLIT
*SFR* 000000C8H.0 DATA     BIT       TMR2CN0_T2XCLK0
*SFR* 000000C8H.1 DATA     BIT       TMR2CN0_T2XCLK1
*SFR* 000000C8H.4 DATA     BIT       TMR2CN0_TF2CEN
*SFR* 000000C8H.7 DATA     BIT       TMR2CN0_TF2H
*SFR* 000000C8H.6 DATA     BIT       TMR2CN0_TF2L
*SFR* 000000C8H.5 DATA     BIT       TMR2CN0_TF2LEN
*SFR* 000000C8H.2 DATA     BIT       TMR2CN0_TR2
*SFR* 000000CDH   DATA     BYTE      TMR2H
*SFR* 000000CCH   DATA     BYTE      TMR2L
*SFR* 000000CAH   DATA     WORD      TMR2RL
*SFR* 000000CBH   DATA     BYTE      TMR2RLH
*SFR* 000000CAH   DATA     BYTE      TMR2RLL
*SFR* 00000094H   DATA     WORD      TMR3
*SFR* 00000091H   DATA     BYTE      TMR3CN0
*SFR* 00000095H   DATA     BYTE      TMR3H
*SFR* 00000094H   DATA     BYTE      TMR3L
*SFR* 00000092H   DATA     WORD      TMR3RL
*SFR* 00000093H   DATA     BYTE      TMR3RLH
*SFR* 00000092H   DATA     BYTE      TMR3RLL
*SFR* 0000008EH   DATA     BYTE      TOFFH
*SFR* 0000008DH   DATA     BYTE      TOFFL
      02000024H   PDATA    WORD      v_b_mv
      02000009H   PDATA    WORD      v_s_mv
*SFR* 000000FFH   DATA     BYTE      VDM0CN
      01001F8FH   CODE     ---       VREF_0_enter_DefaultMode_from_RESET
      01001F87H   CODE     ---       VREG_0_enter_DefaultMode_from_RESET
      00000023H.1 BIT      BIT       WD_Detected
      01001EADH   CODE     ---       WD_Init
      01001F75H   CODE     ---       WD_Reset
*SFR* 000000E1H   DATA     BYTE      XBR0
*SFR* 000000E2H   DATA     BYTE      XBR1
*SFR* 000000E3H   DATA     BYTE      XBR2
*SFR* 000000B1H   DATA     BYTE      XOSC0CN



SYMBOL TABLE OF MODULE:  SOLARMPPTCHARGER.OMF.CRBUILD (INITDEVICE)

      VALUE       REP       CLASS    TYPE      SYMBOL NAME
      ====================================================
      ---         MODULE    ---      ---       INITDEVICE
      01001F93H   PUBLIC    CODE     ---       FLASH_0_enter_DefaultMode_from_RESET
      01001F14H   PUBLIC    CODE     ---       INTERRUPT_0_enter_DefaultMode_from_RESET
      01001EA0H   PUBLIC    CODE     ---       SMBUS_0_enter_DefaultMode_from_RESET
      01001F8FH   PUBLIC    CODE     ---       VREF_0_enter_DefaultMode_from_RESET
      01001F67H   PUBLIC    CODE     ---       TIMER_SETUP_0_enter_DefaultMode_from_RESET
      01001D85H   PUBLIC    CODE     ---       TIMER16_2_enter_DefaultMode_from_RESET
      01001E2EH   PUBLIC    CODE     ---       TIMER01_0_enter_DefaultMode_from_RESET
      01001EBAH   PUBLIC    CODE     ---       CLOCK_0_enter_DefaultMode_from_RESET
      01001F0AH   PUBLIC    CODE     ---       HFOSC_0_enter_DefaultMode_from_RESET
LX51 LINKER/LOCATER V4.66.97.0                                                        02/10/2023  14:24:31  PAGE 20


      01001F8BH   PUBLIC    CODE     ---       RSTSRC_0_enter_DefaultMode_from_RESET
      01001F87H   PUBLIC    CODE     ---       VREG_0_enter_DefaultMode_from_RESET
      01001F00H   PUBLIC    CODE     ---       PCACH_1_enter_DefaultMode_from_RESET
      01001EF6H   PUBLIC    CODE     ---       PCACH_0_enter_DefaultMode_from_RESET
      0100003EH   PUBLIC    CODE     ---       ADC_0_enter_DefaultMode_from_RESET
      0100002EH   PUBLIC    CODE     ---       PBCFG_0_enter_DefaultMode_from_RESET
      01001E1BH   PUBLIC    CODE     ---       PORTS_1_enter_DefaultMode_from_RESET
      01001E08H   PUBLIC    CODE     ---       PORTS_0_enter_DefaultMode_from_RESET
      01000003H   PUBLIC    CODE     ---       PCACH_2_enter_DefaultMode_from_RESET
      01001DF5H   PUBLIC    CODE     ---       PCA_0_enter_DefaultMode_from_RESET
      010018DDH   PUBLIC    CODE     ---       enter_DefaultMode_from_RESET
      000000A2H   SFRSYM    DATA     BYTE      SPI0CKR
      00000080H   SFRSYM    DATA     BYTE      P0
      000000D0H.2 SFRSYM    DATA     BIT       PSW_OV
      000000B1H   SFRSYM    DATA     BYTE      XOSC0CN
      00000090H   SFRSYM    DATA     BYTE      P1
      000000A0H   SFRSYM    DATA     BYTE      P2
      00000097H   SFRSYM    DATA     BYTE      ADC0CF
      000000C0H.7 SFRSYM    DATA     BIT       SMB0CN0_MASTER
      000000F9H   SFRSYM    DATA     WORD      PCA0
      000000AEH   SFRSYM    DATA     BYTE      RTC0KEY
      000000E6H   SFRSYM    DATA     BYTE      EIE1
      000000C0H.1 SFRSYM    DATA     BIT       SMB0CN0_ACK
      000000E7H   SFRSYM    DATA     BYTE      EIE2
      0000008FH   SFRSYM    DATA     BYTE      PSCTL
      000000E4H   SFRSYM    DATA     BYTE      IT01CF
      000000B0H   SFRSYM    DATA     BYTE      CS0CN0
      000000C0H.6 SFRSYM    DATA     BIT       SMB0CN0_TXMODE
      000000E3H   SFRSYM    DATA     BYTE      DERIVID
      000000AFH   SFRSYM    DATA     BYTE      CS0MD1
      000000A7H   SFRSYM    DATA     BYTE      SFRPAGE
      000000F3H   SFRSYM    DATA     BYTE      CS0MD2
      000000A4H   SFRSYM    DATA     BYTE      P0MDOUT
      000000F3H   SFRSYM    DATA     BYTE      CS0MD3
      000000A5H   SFRSYM    DATA     BYTE      P1MDOUT
      000000E8H.5 SFRSYM    DATA     BIT       ADC0CN0_ADINT
      000000CBH   SFRSYM    DATA     BYTE      TMR2RLH
      000000A6H   SFRSYM    DATA     BYTE      P2MDOUT
      000000A8H   SFRSYM    DATA     BYTE      IE
      00000093H   SFRSYM    DATA     BYTE      TMR3RLH
      000000F6H   SFRSYM    DATA     BYTE      EIP1
      000000F7H   SFRSYM    DATA     BYTE      EIP2
      00000098H.2 SFRSYM    DATA     BIT       SCON0_RB8
      000000CAH   SFRSYM    DATA     BYTE      TMR2RLL
      000000FCH   SFRSYM    DATA     BYTE      PCA0CPH0
      00000092H   SFRSYM    DATA     BYTE      TMR3RLL
      000000EAH   SFRSYM    DATA     BYTE      PCA0CPH1
      00000098H.3 SFRSYM    DATA     BIT       SCON0_TB8
      000000B0H.7 SFRSYM    DATA     BIT       CS0CN0_CSEN
      000000F0H.0 SFRSYM    DATA     BIT       B_B0
      00000082H   SFRSYM    DATA     WORD      DP
      000000ECH   SFRSYM    DATA     BYTE      PCA0CPH2
      000000F0H.1 SFRSYM    DATA     BIT       B_B1
      000000C3H   SFRSYM    DATA     WORD      ADC0GT
      000000F0H.2 SFRSYM    DATA     BIT       B_B2
      000000FBH   SFRSYM    DATA     BYTE      PCA0CPL0
      000000F0H.3 SFRSYM    DATA     BIT       B_B3
      000000D9H   SFRSYM    DATA     BYTE      PCA0MD
      000000DAH   SFRSYM    DATA     BYTE      PCA0CPM0
      000000E9H   SFRSYM    DATA     BYTE      PCA0CPL1
      000000F0H.4 SFRSYM    DATA     BIT       B_B4
      000000DBH   SFRSYM    DATA     BYTE      PCA0CPM1
LX51 LINKER/LOCATER V4.66.97.0                                                        02/10/2023  14:24:31  PAGE 21


      000000EBH   SFRSYM    DATA     BYTE      PCA0CPL2
      000000F0H.5 SFRSYM    DATA     BIT       B_B5
      000000DCH   SFRSYM    DATA     BYTE      PCA0CPM2
      000000B8H   SFRSYM    DATA     BYTE      IP
      000000BCH   SFRSYM    DATA     BYTE      ADC0TK
      000000F0H.6 SFRSYM    DATA     BIT       B_B6
      000000C5H   SFRSYM    DATA     WORD      ADC0LT
      000000D6H   SFRSYM    DATA     BYTE      IREF0CN0
      00000098H.5 SFRSYM    DATA     BIT       SCON0_MCE
      000000F0H.7 SFRSYM    DATA     BIT       B_B7
      000000E1H   SFRSYM    DATA     BYTE      XBR0
      000000C1H   SFRSYM    DATA     BYTE      SMB0CF
      000000E2H   SFRSYM    DATA     BYTE      XBR1
      000000D2H   SFRSYM    DATA     BYTE      CS0SCAN0
      000000C0H.5 SFRSYM    DATA     BIT       SMB0CN0_STA
      000000E3H   SFRSYM    DATA     BYTE      XBR2
      000000D3H   SFRSYM    DATA     BYTE      CS0SCAN1
      00000096H   SFRSYM    DATA     BYTE      ADC0MX
      000000E0H.0 SFRSYM    DATA     BIT       ACC_ACC0
      000000D1H   SFRSYM    DATA     BYTE      REF0CN
      000000B2H   SFRSYM    DATA     BYTE      HFO0CN
      0000008EH   SFRSYM    DATA     BYTE      CKCON0
      000000E0H.1 SFRSYM    DATA     BIT       ACC_ACC1
      000000C9H   SFRSYM    DATA     BYTE      REG0CN
      00000085H   SFRSYM    DATA     BYTE      CRC0IN
      000000C8H.2 SFRSYM    DATA     BIT       TMR2CN0_TR2
      000000E0H.2 SFRSYM    DATA     BIT       ACC_ACC2
      000000E0H.3 SFRSYM    DATA     BIT       ACC_ACC3
      00000081H   SFRSYM    DATA     BYTE      SP
      0000009DH   SFRSYM    DATA     BYTE      CMP0MD
      000000E0H.4 SFRSYM    DATA     BIT       ACC_ACC4
      000000D8H.0 SFRSYM    DATA     BIT       PCA0CN0_CCF0
      000000E0H.5 SFRSYM    DATA     BIT       ACC_ACC5
      000000D8H.1 SFRSYM    DATA     BIT       PCA0CN0_CCF1
      000000E0H.6 SFRSYM    DATA     BIT       ACC_ACC6
      000000CCH   SFRSYM    DATA     WORD      TMR2
      000000D8H.2 SFRSYM    DATA     BIT       PCA0CN0_CCF2
      000000E0H.7 SFRSYM    DATA     BIT       ACC_ACC7
      00000094H   SFRSYM    DATA     WORD      TMR3
      000000B0H.0 SFRSYM    DATA     BIT       CS0CN0_CSCMPF
      000000C0H.3 SFRSYM    DATA     BIT       SMB0CN0_ACKRQ
      000000FFH   SFRSYM    DATA     BYTE      VDM0CN
      000000F1H   SFRSYM    DATA     BYTE      P0MDIN
      00000098H.4 SFRSYM    DATA     BIT       SCON0_REN
      000000F2H   SFRSYM    DATA     BYTE      P1MDIN
      000000FEH   SFRSYM    DATA     BYTE      CS0THH
      000000C0H.4 SFRSYM    DATA     BIT       SMB0CN0_STO
      000000B5H   SFRSYM    DATA     BYTE      PMU0CF
      000000C7H   SFRSYM    DATA     BYTE      P0MASK
      000000BFH   SFRSYM    DATA     BYTE      P1MASK
      000000FDH   SFRSYM    DATA     BYTE      CS0THL
      000000D0H.3 SFRSYM    DATA     BIT       PSW_RS0
      000000D8H.7 SFRSYM    DATA     BIT       PCA0CN0_CF
      000000F8H.4 SFRSYM    DATA     BIT       SPI0CN0_RXOVRN
      000000D0H.4 SFRSYM    DATA     BIT       PSW_RS1
      000000C8H.0 SFRSYM    DATA     BIT       TMR2CN0_T2XCLK0
      000000C8H.1 SFRSYM    DATA     BIT       TMR2CN0_T2XCLK1
      000000E8H.7 SFRSYM    DATA     BIT       ADC0CN0_ADEN
      00000089H   SFRSYM    DATA     BYTE      TMOD
      00000088H   SFRSYM    DATA     BYTE      TCON
      000000B5H   SFRSYM    DATA     BYTE      PMU0MD
      000000CEH   SFRSYM    DATA     BYTE      PMU0FL
LX51 LINKER/LOCATER V4.66.97.0                                                        02/10/2023  14:24:31  PAGE 22


      0000009CH   SFRSYM    DATA     BYTE      CRC0FLIP
      000000D0H.0 SFRSYM    DATA     BIT       PSW_PARITY
      000000A8H.4 SFRSYM    DATA     BIT       IE_ES0
      0000009FH   SFRSYM    DATA     BYTE      CMP0MX
      000000A8H.1 SFRSYM    DATA     BIT       IE_ET0
      000000A8H.3 SFRSYM    DATA     BIT       IE_ET1
      000000D4H   SFRSYM    DATA     BYTE      P0SKIP
      000000A8H.5 SFRSYM    DATA     BIT       IE_ET2
      000000D5H   SFRSYM    DATA     BYTE      P1SKIP
      000000E8H   SFRSYM    DATA     BYTE      ADC0CN0
      000000A8H.0 SFRSYM    DATA     BIT       IE_EX0
      000000D8H.6 SFRSYM    DATA     BIT       PCA0CN0_CR
      000000A8H.2 SFRSYM    DATA     BIT       IE_EX1
      00000098H.7 SFRSYM    DATA     BIT       SCON0_SMODE
      000000A9H   SFRSYM    DATA     BYTE      CLKSEL
      000000F8H.0 SFRSYM    DATA     BIT       SPI0CN0_SPIEN
      000000F0H   SFRSYM    DATA     BYTE      B
      000000BEH   SFRSYM    DATA     BYTE      ADC0H
      0000009EH   SFRSYM    DATA     BYTE      CRC0AUTO
      000000B0H.4 SFRSYM    DATA     BIT       CS0CN0_CSBUSY
      000000E8H.6 SFRSYM    DATA     BIT       ADC0CN0_ADBMEN
      000000CAH   SFRSYM    DATA     WORD      TMR2RL
      000000BDH   SFRSYM    DATA     BYTE      ADC0L
      00000092H   SFRSYM    DATA     WORD      TMR3RL
      000000D8H   SFRSYM    DATA     BYTE      PCA0CN0
      000000E0H   SFRSYM    DATA     BYTE      ACC
      000000FBH   SFRSYM    DATA     WORD      PCA0CP0
      000000E9H   SFRSYM    DATA     WORD      PCA0CP1
      000000EBH   SFRSYM    DATA     WORD      PCA0CP2
      00000084H   SFRSYM    DATA     BYTE      CRC0CN0
      0000008CH   SFRSYM    DATA     BYTE      TH0
      000000B8H.4 SFRSYM    DATA     BIT       IP_PS0
      0000008DH   SFRSYM    DATA     BYTE      TH1
      000000FAH   SFRSYM    DATA     BYTE      PCA0H
      000000B8H.1 SFRSYM    DATA     BIT       IP_PT0
      000000B8H.3 SFRSYM    DATA     BIT       IP_PT1
      000000C0H.2 SFRSYM    DATA     BIT       SMB0CN0_ARBLOST
      000000B8H.5 SFRSYM    DATA     BIT       IP_PT2
      0000008AH   SFRSYM    DATA     BYTE      TL0
      000000AAH   SFRSYM    DATA     BYTE      CS0CF
      000000F8H.1 SFRSYM    DATA     BIT       SPI0CN0_TXBMT
      000000D0H.5 SFRSYM    DATA     BIT       PSW_F0
      000000A8H.6 SFRSYM    DATA     BIT       IE_ESPI0
      0000008BH   SFRSYM    DATA     BYTE      TL1
      000000F9H   SFRSYM    DATA     BYTE      PCA0L
      000000C0H.0 SFRSYM    DATA     BIT       SMB0CN0_SI
      000000D0H.1 SFRSYM    DATA     BIT       PSW_F1
      00000080H.0 SFRSYM    DATA     BIT       P0_B0
      000000B8H.0 SFRSYM    DATA     BIT       IP_PX0
      00000090H.0 SFRSYM    DATA     BIT       P1_B0
      00000080H.1 SFRSYM    DATA     BIT       P0_B1
      000000B8H.2 SFRSYM    DATA     BIT       IP_PX1
      000000EEH   SFRSYM    DATA     BYTE      CS0DH
      0000009BH   SFRSYM    DATA     BYTE      CMP0CN0
      00000088H.1 SFRSYM    DATA     BIT       TCON_IE0
      00000090H.1 SFRSYM    DATA     BIT       P1_B1
      00000080H.2 SFRSYM    DATA     BIT       P0_B2
      00000088H.3 SFRSYM    DATA     BIT       TCON_IE1
      00000090H.2 SFRSYM    DATA     BIT       P1_B2
      00000080H.3 SFRSYM    DATA     BIT       P0_B3
      000000C0H   SFRSYM    DATA     BYTE      SMB0CN0
      00000090H.3 SFRSYM    DATA     BIT       P1_B3
LX51 LINKER/LOCATER V4.66.97.0                                                        02/10/2023  14:24:31  PAGE 23


      00000080H.4 SFRSYM    DATA     BIT       P0_B4
      00000090H.4 SFRSYM    DATA     BIT       P1_B4
      00000080H.5 SFRSYM    DATA     BIT       P0_B5
      000000EDH   SFRSYM    DATA     BYTE      CS0DL
      00000090H.5 SFRSYM    DATA     BIT       P1_B5
      00000080H.6 SFRSYM    DATA     BIT       P0_B6
      00000090H.6 SFRSYM    DATA     BIT       P1_B6
      00000080H.7 SFRSYM    DATA     BIT       P0_B7
      00000090H.7 SFRSYM    DATA     BIT       P1_B7
      000000A0H.7 SFRSYM    DATA     BIT       P2_B7
      00000083H   SFRSYM    DATA     BYTE      DPH
      000000C4H   SFRSYM    DATA     BYTE      ADC0GTH
      000000C8H.7 SFRSYM    DATA     BIT       TMR2CN0_TF2H
      000000C8H.3 SFRSYM    DATA     BIT       TMR2CN0_T2SPLIT
      000000D0H.6 SFRSYM    DATA     BIT       PSW_AC
      000000F8H   SFRSYM    DATA     BYTE      SPI0CN0
      000000B3H   SFRSYM    DATA     BYTE      HFO0CAL
      000000DEH   SFRSYM    DATA     BYTE      CS0SE
      00000088H.5 SFRSYM    DATA     BIT       TCON_TF0
      00000098H.0 SFRSYM    DATA     BIT       SCON0_RI
      00000082H   SFRSYM    DATA     BYTE      DPL
      00000088H.7 SFRSYM    DATA     BIT       TCON_TF1
      00000099H   SFRSYM    DATA     BYTE      SBUF0
      00000087H   SFRSYM    DATA     BYTE      PCON0
      000000B9H   SFRSYM    DATA     BYTE      IREF0CF
      000000C3H   SFRSYM    DATA     BYTE      ADC0GTL
      000000C8H.6 SFRSYM    DATA     BIT       TMR2CN0_TF2L
      00000098H.1 SFRSYM    DATA     BIT       SCON0_TI
      000000E8H.0 SFRSYM    DATA     BIT       ADC0CN0_ADCM0
      000000C6H   SFRSYM    DATA     BYTE      ADC0LTH
      00000088H.0 SFRSYM    DATA     BIT       TCON_IT0
      000000B0H.1 SFRSYM    DATA     BIT       CS0CN0_CSPME
      000000E8H.1 SFRSYM    DATA     BIT       ADC0CN0_ADCM1
      000000EFH   SFRSYM    DATA     BYTE      RSTSRC
      000000D7H   SFRSYM    DATA     BYTE      P0MAT
      00000086H   SFRSYM    DATA     BYTE      CRC0DAT
      00000088H.2 SFRSYM    DATA     BIT       TCON_IT1
      000000E8H.2 SFRSYM    DATA     BIT       ADC0CN0_ADCM2
      00000098H   SFRSYM    DATA     BYTE      SCON0
      000000CFH   SFRSYM    DATA     BYTE      P1MAT
      000000DEH   SFRSYM    DATA     BYTE      CS0PM
      000000E8H.3 SFRSYM    DATA     BIT       ADC0CN0_ADWINT
      000000E8H.4 SFRSYM    DATA     BIT       ADC0CN0_ADBUSY
      000000F5H   SFRSYM    DATA     BYTE      SMB0ADM
      000000C5H   SFRSYM    DATA     BYTE      ADC0LTL
      000000F8H.5 SFRSYM    DATA     BIT       SPI0CN0_MODF
      000000B8H.6 SFRSYM    DATA     BIT       IP_PSPI0
      000000B0H.6 SFRSYM    DATA     BIT       CS0CN0_CSEOS
      000000C8H   SFRSYM    DATA     BYTE      TMR2CN0
      00000091H   SFRSYM    DATA     BYTE      TMR3CN0
      000000F4H   SFRSYM    DATA     BYTE      SMB0ADR
      00000088H.4 SFRSYM    DATA     BIT       TCON_TR0
      000000B0H.5 SFRSYM    DATA     BIT       CS0CN0_CSINT
      000000ABH   SFRSYM    DATA     BYTE      CS0MX
      000000C8H.4 SFRSYM    DATA     BIT       TMR2CN0_TF2CEN
      00000088H.6 SFRSYM    DATA     BIT       TCON_TR1
      000000C2H   SFRSYM    DATA     BYTE      SMB0DAT
      00000099H   SFRSYM    DATA     BYTE      P0DRV
      000000DDH   SFRSYM    DATA     BYTE      CS0SS
      000000CDH   SFRSYM    DATA     BYTE      TMR2H
      000000A1H   SFRSYM    DATA     BYTE      SPI0CFG
      0000009BH   SFRSYM    DATA     BYTE      P1DRV
LX51 LINKER/LOCATER V4.66.97.0                                                        02/10/2023  14:24:31  PAGE 24


      00000095H   SFRSYM    DATA     BYTE      TMR3H
      0000009DH   SFRSYM    DATA     BYTE      P2DRV
      0000009AH   SFRSYM    DATA     BYTE      CRC0CNT
      000000CCH   SFRSYM    DATA     BYTE      TMR2L
      000000ACH   SFRSYM    DATA     BYTE      RTC0ADR
      000000F8H.7 SFRSYM    DATA     BIT       SPI0CN0_SPIF
      00000094H   SFRSYM    DATA     BYTE      TMR3L
      000000BBH   SFRSYM    DATA     BYTE      ADC0PWR
      000000A8H.7 SFRSYM    DATA     BIT       IE_EA
      000000ADH   SFRSYM    DATA     BYTE      RTC0DAT
      000000B0H.3 SFRSYM    DATA     BIT       CS0CN0_CSCMPEN
      000000B6H   SFRSYM    DATA     BYTE      FLSCL
      000000C8H.5 SFRSYM    DATA     BIT       TMR2CN0_TF2LEN
      000000F8H.6 SFRSYM    DATA     BIT       SPI0CN0_WCOL
      000000F8H.2 SFRSYM    DATA     BIT       SPI0CN0_NSSMD0
      000000D0H.7 SFRSYM    DATA     BIT       PSW_CY
      000000A3H   SFRSYM    DATA     BYTE      SPI0DAT
      000000F8H.3 SFRSYM    DATA     BIT       SPI0CN0_NSSMD1
      000000BDH   SFRSYM    DATA     WORD      ADC0
      0000008EH   SFRSYM    DATA     BYTE      TOFFH
      000000D0H   SFRSYM    DATA     BYTE      PSW
      000000DFH   SFRSYM    DATA     BYTE      PCA0PWM
      000000E2H   SFRSYM    DATA     BYTE      REVID
      0000008DH   SFRSYM    DATA     BYTE      TOFFL
      000000B7H   SFRSYM    DATA     BYTE      FLKEY
      000000BAH   SFRSYM    DATA     BYTE      ADC0AC

      010018DDH   BLOCK     CODE     ---       LVL=0
      010018DDH   BLOCK     CODE     NEAR LAB  LVL=1
      02000028H   SYMBOL    PDATA    BYTE      SFRPAGE_save
      ---         BLOCKEND  ---      ---       LVL=1
      010018DDH   LINE      CODE     ---       #32
      010018DDH   LINE      CODE     ---       #35
      010018E2H   LINE      CODE     ---       #36
      010018E5H   LINE      CODE     ---       #37
      010018E8H   LINE      CODE     ---       #38
      010018EBH   LINE      CODE     ---       #39
      010018EEH   LINE      CODE     ---       #40
      010018F1H   LINE      CODE     ---       #41
      010018F4H   LINE      CODE     ---       #42
      010018F7H   LINE      CODE     ---       #43
      010018FAH   LINE      CODE     ---       #44
      010018FDH   LINE      CODE     ---       #45
      01001900H   LINE      CODE     ---       #46
      01001903H   LINE      CODE     ---       #47
      01001906H   LINE      CODE     ---       #48
      01001909H   LINE      CODE     ---       #49
      0100190CH   LINE      CODE     ---       #50
      0100190FH   LINE      CODE     ---       #51
      01001912H   LINE      CODE     ---       #52
      01001915H   LINE      CODE     ---       #53
      01001918H   LINE      CODE     ---       #54
      0100191BH   LINE      CODE     ---       #56
      01001920H   LINE      CODE     ---       #59
      ---         BLOCKEND  ---      ---       LVL=0

      01001DF5H   BLOCK     CODE     ---       LVL=0
      01001DF5H   LINE      CODE     ---       #61
      01001DF5H   LINE      CODE     ---       #72
      01001DF8H   LINE      CODE     ---       #73
      01001DFBH   LINE      CODE     ---       #74
      01001DFEH   LINE      CODE     ---       #89
LX51 LINKER/LOCATER V4.66.97.0                                                        02/10/2023  14:24:31  PAGE 25


      01001E01H   LINE      CODE     ---       #90
      01001E04H   LINE      CODE     ---       #97
      01001E07H   LINE      CODE     ---       #100
      ---         BLOCKEND  ---      ---       LVL=0

      01000003H   BLOCK     CODE     ---       LVL=0
      01000003H   LINE      CODE     ---       #102
      01000003H   LINE      CODE     ---       #119
      01000006H   LINE      CODE     ---       #129
      01000009H   LINE      CODE     ---       #138
      ---         BLOCKEND  ---      ---       LVL=0

      01001E08H   BLOCK     CODE     ---       LVL=0
      01001E08H   LINE      CODE     ---       #140
      01001E08H   LINE      CODE     ---       #152
      01001E0BH   LINE      CODE     ---       #167
      01001E0EH   LINE      CODE     ---       #184
      01001E11H   LINE      CODE     ---       #200
      01001E14H   LINE      CODE     ---       #222
      01001E17H   LINE      CODE     ---       #223
      01001E1AH   LINE      CODE     ---       #228
      ---         BLOCKEND  ---      ---       LVL=0

      01001E1BH   BLOCK     CODE     ---       LVL=0
      01001E1BH   LINE      CODE     ---       #230
      01001E1BH   LINE      CODE     ---       #242
      01001E1EH   LINE      CODE     ---       #243
      01001E21H   LINE      CODE     ---       #258
      01001E24H   LINE      CODE     ---       #278
      01001E27H   LINE      CODE     ---       #304
      01001E2AH   LINE      CODE     ---       #305
      01001E2DH   LINE      CODE     ---       #310
      ---         BLOCKEND  ---      ---       LVL=0

      0100002EH   BLOCK     CODE     ---       LVL=0
      0100002EH   LINE      CODE     ---       #312
      0100002EH   LINE      CODE     ---       #318
      01000031H   LINE      CODE     ---       #319
      01000034H   LINE      CODE     ---       #331
      01000037H   LINE      CODE     ---       #343
      0100003AH   LINE      CODE     ---       #347
      ---         BLOCKEND  ---      ---       LVL=0

      0100003EH   BLOCK     CODE     ---       LVL=0
      0100003EH   LINE      CODE     ---       #349
      0100003EH   LINE      CODE     ---       #354
      01000041H   LINE      CODE     ---       #365
      01000044H   LINE      CODE     ---       #377
      01000047H   LINE      CODE     ---       #388
      0100004AH   LINE      CODE     ---       #396
      0100004DH   LINE      CODE     ---       #403
      0100004FH   LINE      CODE     ---       #417
      01000052H   LINE      CODE     ---       #420
      ---         BLOCKEND  ---      ---       LVL=0

      01001EF6H   BLOCK     CODE     ---       LVL=0
      01001EF6H   LINE      CODE     ---       #422
      01001EF6H   LINE      CODE     ---       #439
      01001EF9H   LINE      CODE     ---       #449
      01001EFCH   LINE      CODE     ---       #453
      01001EFFH   LINE      CODE     ---       #461
      ---         BLOCKEND  ---      ---       LVL=0
LX51 LINKER/LOCATER V4.66.97.0                                                        02/10/2023  14:24:31  PAGE 26



      01001F00H   BLOCK     CODE     ---       LVL=0
      01001F00H   LINE      CODE     ---       #463
      01001F00H   LINE      CODE     ---       #480
      01001F03H   LINE      CODE     ---       #490
      01001F06H   LINE      CODE     ---       #494
      01001F09H   LINE      CODE     ---       #502
      ---         BLOCKEND  ---      ---       LVL=0

      01001F87H   BLOCK     CODE     ---       LVL=0
      01001F87H   LINE      CODE     ---       #504
      01001F87H   LINE      CODE     ---       #509
      01001F8AH   LINE      CODE     ---       #512
      ---         BLOCKEND  ---      ---       LVL=0

      01001F8BH   BLOCK     CODE     ---       LVL=0
      01001F8BH   LINE      CODE     ---       #514
      01001F8BH   LINE      CODE     ---       #522
      01001F8EH   LINE      CODE     ---       #526
      ---         BLOCKEND  ---      ---       LVL=0

      01001F0AH   BLOCK     CODE     ---       LVL=0
      01001F0AH   LINE      CODE     ---       #528
      01001F0AH   LINE      CODE     ---       #536
      01001F0DH   LINE      CODE     ---       #540
      01001F13H   LINE      CODE     ---       #544
      ---         BLOCKEND  ---      ---       LVL=0

      01001EBAH   BLOCK     CODE     ---       LVL=0
      01001EBAH   LINE      CODE     ---       #546
      01001EBAH   LINE      CODE     ---       #552
      01001EBDH   LINE      CODE     ---       #554
      01001EC5H   LINE      CODE     ---       #558
      ---         BLOCKEND  ---      ---       LVL=0

      01001E2EH   BLOCK     CODE     ---       LVL=0
      01001E2EH   BLOCK     CODE     NEAR LAB  LVL=1
      00000007H   SYMBOL    DATA     BYTE      TCON_save
      ---         BLOCKEND  ---      ---       LVL=1
      01001E2EH   LINE      CODE     ---       #560
      01001E2EH   LINE      CODE     ---       #564
      01001E30H   LINE      CODE     ---       #566
      01001E33H   LINE      CODE     ---       #574
      01001E36H   LINE      CODE     ---       #588
      01001E40H   LINE      CODE     ---       #592
      ---         BLOCKEND  ---      ---       LVL=0

      01001D85H   BLOCK     CODE     ---       LVL=0
      01001D85H   BLOCK     CODE     NEAR LAB  LVL=1
      00000007H   SYMBOL    DATA     BYTE      TMR2CN0_TR2_save
      ---         BLOCKEND  ---      ---       LVL=1
      01001D85H   LINE      CODE     ---       #594
      01001D85H   LINE      CODE     ---       #598
      01001D89H   LINE      CODE     ---       #600
      01001D8CH   LINE      CODE     ---       #610
      01001D8FH   LINE      CODE     ---       #617
      01001D92H   LINE      CODE     ---       #624
      01001D95H   LINE      CODE     ---       #631
      01001D98H   LINE      CODE     ---       #638
      01001D9BH   LINE      CODE     ---       #643
      01001D9DH   LINE      CODE     ---       #646
      ---         BLOCKEND  ---      ---       LVL=0
LX51 LINKER/LOCATER V4.66.97.0                                                        02/10/2023  14:24:31  PAGE 27



      01001F67H   BLOCK     CODE     ---       LVL=0
      01001F67H   LINE      CODE     ---       #648
      01001F67H   LINE      CODE     ---       #659
      01001F6AH   LINE      CODE     ---       #674
      01001F6DH   LINE      CODE     ---       #681
      ---         BLOCKEND  ---      ---       LVL=0

      01001F8FH   BLOCK     CODE     ---       LVL=0
      01001F8FH   LINE      CODE     ---       #683
      01001F8FH   LINE      CODE     ---       #691
      01001F92H   LINE      CODE     ---       #695
      ---         BLOCKEND  ---      ---       LVL=0

      01001EA0H   BLOCK     CODE     ---       LVL=0
      01001EA0H   LINE      CODE     ---       #697
      01001EA0H   LINE      CODE     ---       #703
      01001EA3H   LINE      CODE     ---       #712
      01001EA6H   LINE      CODE     ---       #720
      01001EA9H   LINE      CODE     ---       #721
      01001EACH   LINE      CODE     ---       #724
      ---         BLOCKEND  ---      ---       LVL=0

      01001F14H   BLOCK     CODE     ---       LVL=0
      01001F14H   LINE      CODE     ---       #726
      01001F14H   LINE      CODE     ---       #737
      01001F17H   LINE      CODE     ---       #752
      01001F1AH   LINE      CODE     ---       #767
      01001F1DH   LINE      CODE     ---       #781
      ---         BLOCKEND  ---      ---       LVL=0

      01001F93H   BLOCK     CODE     ---       LVL=0
      01001F93H   LINE      CODE     ---       #783
      01001F93H   LINE      CODE     ---       #788
      01001F96H   LINE      CODE     ---       #791
      ---         BLOCKEND  ---      ---       LVL=0

      ---         MODULE    ---      ---       INTERRUPTS
      000000A2H   SFRSYM    DATA     BYTE      SPI0CKR
      00000080H   SFRSYM    DATA     BYTE      P0
      000000D0H.2 SFRSYM    DATA     BIT       PSW_OV
      000000B1H   SFRSYM    DATA     BYTE      XOSC0CN
      00000090H   SFRSYM    DATA     BYTE      P1
      000000A0H   SFRSYM    DATA     BYTE      P2
      00000097H   SFRSYM    DATA     BYTE      ADC0CF
      000000C0H.7 SFRSYM    DATA     BIT       SMB0CN0_MASTER
      000000F9H   SFRSYM    DATA     WORD      PCA0
      000000AEH   SFRSYM    DATA     BYTE      RTC0KEY
      000000E6H   SFRSYM    DATA     BYTE      EIE1
      000000C0H.1 SFRSYM    DATA     BIT       SMB0CN0_ACK
      000000E7H   SFRSYM    DATA     BYTE      EIE2
      0000008FH   SFRSYM    DATA     BYTE      PSCTL
      000000E4H   SFRSYM    DATA     BYTE      IT01CF
      000000B0H   SFRSYM    DATA     BYTE      CS0CN0
      000000C0H.6 SFRSYM    DATA     BIT       SMB0CN0_TXMODE
      000000E3H   SFRSYM    DATA     BYTE      DERIVID
      000000AFH   SFRSYM    DATA     BYTE      CS0MD1
      000000A7H   SFRSYM    DATA     BYTE      SFRPAGE
      000000F3H   SFRSYM    DATA     BYTE      CS0MD2
      000000A4H   SFRSYM    DATA     BYTE      P0MDOUT
      000000F3H   SFRSYM    DATA     BYTE      CS0MD3
      000000A5H   SFRSYM    DATA     BYTE      P1MDOUT
LX51 LINKER/LOCATER V4.66.97.0                                                        02/10/2023  14:24:31  PAGE 28


      000000E8H.5 SFRSYM    DATA     BIT       ADC0CN0_ADINT
      000000CBH   SFRSYM    DATA     BYTE      TMR2RLH
      000000A6H   SFRSYM    DATA     BYTE      P2MDOUT
      000000A8H   SFRSYM    DATA     BYTE      IE
      00000093H   SFRSYM    DATA     BYTE      TMR3RLH
      000000F6H   SFRSYM    DATA     BYTE      EIP1
      000000F7H   SFRSYM    DATA     BYTE      EIP2
      00000098H.2 SFRSYM    DATA     BIT       SCON0_RB8
      000000CAH   SFRSYM    DATA     BYTE      TMR2RLL
      000000FCH   SFRSYM    DATA     BYTE      PCA0CPH0
      00000092H   SFRSYM    DATA     BYTE      TMR3RLL
      000000EAH   SFRSYM    DATA     BYTE      PCA0CPH1
      00000098H.3 SFRSYM    DATA     BIT       SCON0_TB8
      000000B0H.7 SFRSYM    DATA     BIT       CS0CN0_CSEN
      000000F0H.0 SFRSYM    DATA     BIT       B_B0
      00000082H   SFRSYM    DATA     WORD      DP
      000000ECH   SFRSYM    DATA     BYTE      PCA0CPH2
      000000F0H.1 SFRSYM    DATA     BIT       B_B1
      000000C3H   SFRSYM    DATA     WORD      ADC0GT
      000000F0H.2 SFRSYM    DATA     BIT       B_B2
      000000FBH   SFRSYM    DATA     BYTE      PCA0CPL0
      000000F0H.3 SFRSYM    DATA     BIT       B_B3
      000000D9H   SFRSYM    DATA     BYTE      PCA0MD
      000000DAH   SFRSYM    DATA     BYTE      PCA0CPM0
      000000E9H   SFRSYM    DATA     BYTE      PCA0CPL1
      000000F0H.4 SFRSYM    DATA     BIT       B_B4
      000000DBH   SFRSYM    DATA     BYTE      PCA0CPM1
      000000EBH   SFRSYM    DATA     BYTE      PCA0CPL2
      000000F0H.5 SFRSYM    DATA     BIT       B_B5
      000000DCH   SFRSYM    DATA     BYTE      PCA0CPM2
      000000B8H   SFRSYM    DATA     BYTE      IP
      000000BCH   SFRSYM    DATA     BYTE      ADC0TK
      000000F0H.6 SFRSYM    DATA     BIT       B_B6
      000000C5H   SFRSYM    DATA     WORD      ADC0LT
      000000D6H   SFRSYM    DATA     BYTE      IREF0CN0
      00000098H.5 SFRSYM    DATA     BIT       SCON0_MCE
      000000F0H.7 SFRSYM    DATA     BIT       B_B7
      000000E1H   SFRSYM    DATA     BYTE      XBR0
      000000C1H   SFRSYM    DATA     BYTE      SMB0CF
      000000E2H   SFRSYM    DATA     BYTE      XBR1
      000000D2H   SFRSYM    DATA     BYTE      CS0SCAN0
      000000C0H.5 SFRSYM    DATA     BIT       SMB0CN0_STA
      000000E3H   SFRSYM    DATA     BYTE      XBR2
      000000D3H   SFRSYM    DATA     BYTE      CS0SCAN1
      00000096H   SFRSYM    DATA     BYTE      ADC0MX
      000000E0H.0 SFRSYM    DATA     BIT       ACC_ACC0
      000000D1H   SFRSYM    DATA     BYTE      REF0CN
      000000B2H   SFRSYM    DATA     BYTE      HFO0CN
      0000008EH   SFRSYM    DATA     BYTE      CKCON0
      000000E0H.1 SFRSYM    DATA     BIT       ACC_ACC1
      000000C9H   SFRSYM    DATA     BYTE      REG0CN
      00000085H   SFRSYM    DATA     BYTE      CRC0IN
      000000C8H.2 SFRSYM    DATA     BIT       TMR2CN0_TR2
      000000E0H.2 SFRSYM    DATA     BIT       ACC_ACC2
      000000E0H.3 SFRSYM    DATA     BIT       ACC_ACC3
      00000081H   SFRSYM    DATA     BYTE      SP
      0000009DH   SFRSYM    DATA     BYTE      CMP0MD
      000000E0H.4 SFRSYM    DATA     BIT       ACC_ACC4
      000000D8H.0 SFRSYM    DATA     BIT       PCA0CN0_CCF0
      000000E0H.5 SFRSYM    DATA     BIT       ACC_ACC5
      000000D8H.1 SFRSYM    DATA     BIT       PCA0CN0_CCF1
      000000E0H.6 SFRSYM    DATA     BIT       ACC_ACC6
LX51 LINKER/LOCATER V4.66.97.0                                                        02/10/2023  14:24:31  PAGE 29


      000000CCH   SFRSYM    DATA     WORD      TMR2
      000000D8H.2 SFRSYM    DATA     BIT       PCA0CN0_CCF2
      000000E0H.7 SFRSYM    DATA     BIT       ACC_ACC7
      00000094H   SFRSYM    DATA     WORD      TMR3
      000000B0H.0 SFRSYM    DATA     BIT       CS0CN0_CSCMPF
      000000C0H.3 SFRSYM    DATA     BIT       SMB0CN0_ACKRQ
      000000FFH   SFRSYM    DATA     BYTE      VDM0CN
      000000F1H   SFRSYM    DATA     BYTE      P0MDIN
      00000098H.4 SFRSYM    DATA     BIT       SCON0_REN
      000000F2H   SFRSYM    DATA     BYTE      P1MDIN
      000000FEH   SFRSYM    DATA     BYTE      CS0THH
      000000C0H.4 SFRSYM    DATA     BIT       SMB0CN0_STO
      000000B5H   SFRSYM    DATA     BYTE      PMU0CF
      000000C7H   SFRSYM    DATA     BYTE      P0MASK
      000000BFH   SFRSYM    DATA     BYTE      P1MASK
      000000FDH   SFRSYM    DATA     BYTE      CS0THL
      000000D0H.3 SFRSYM    DATA     BIT       PSW_RS0
      000000D8H.7 SFRSYM    DATA     BIT       PCA0CN0_CF
      000000F8H.4 SFRSYM    DATA     BIT       SPI0CN0_RXOVRN
      000000D0H.4 SFRSYM    DATA     BIT       PSW_RS1
      000000C8H.0 SFRSYM    DATA     BIT       TMR2CN0_T2XCLK0
      000000C8H.1 SFRSYM    DATA     BIT       TMR2CN0_T2XCLK1
      000000E8H.7 SFRSYM    DATA     BIT       ADC0CN0_ADEN
      00000089H   SFRSYM    DATA     BYTE      TMOD
      00000088H   SFRSYM    DATA     BYTE      TCON
      000000B5H   SFRSYM    DATA     BYTE      PMU0MD
      000000CEH   SFRSYM    DATA     BYTE      PMU0FL
      0000009CH   SFRSYM    DATA     BYTE      CRC0FLIP
      000000D0H.0 SFRSYM    DATA     BIT       PSW_PARITY
      000000A8H.4 SFRSYM    DATA     BIT       IE_ES0
      0000009FH   SFRSYM    DATA     BYTE      CMP0MX
      000000A8H.1 SFRSYM    DATA     BIT       IE_ET0
      000000A8H.3 SFRSYM    DATA     BIT       IE_ET1
      000000D4H   SFRSYM    DATA     BYTE      P0SKIP
      000000A8H.5 SFRSYM    DATA     BIT       IE_ET2
      000000D5H   SFRSYM    DATA     BYTE      P1SKIP
      000000E8H   SFRSYM    DATA     BYTE      ADC0CN0
      000000A8H.0 SFRSYM    DATA     BIT       IE_EX0
      000000D8H.6 SFRSYM    DATA     BIT       PCA0CN0_CR
      000000A8H.2 SFRSYM    DATA     BIT       IE_EX1
      00000098H.7 SFRSYM    DATA     BIT       SCON0_SMODE
      000000A9H   SFRSYM    DATA     BYTE      CLKSEL
      000000F8H.0 SFRSYM    DATA     BIT       SPI0CN0_SPIEN
      000000F0H   SFRSYM    DATA     BYTE      B
      000000BEH   SFRSYM    DATA     BYTE      ADC0H
      0000009EH   SFRSYM    DATA     BYTE      CRC0AUTO
      000000B0H.4 SFRSYM    DATA     BIT       CS0CN0_CSBUSY
      000000E8H.6 SFRSYM    DATA     BIT       ADC0CN0_ADBMEN
      000000CAH   SFRSYM    DATA     WORD      TMR2RL
      000000BDH   SFRSYM    DATA     BYTE      ADC0L
      00000092H   SFRSYM    DATA     WORD      TMR3RL
      000000D8H   SFRSYM    DATA     BYTE      PCA0CN0
      000000E0H   SFRSYM    DATA     BYTE      ACC
      000000FBH   SFRSYM    DATA     WORD      PCA0CP0
      000000E9H   SFRSYM    DATA     WORD      PCA0CP1
      000000EBH   SFRSYM    DATA     WORD      PCA0CP2
      00000084H   SFRSYM    DATA     BYTE      CRC0CN0
      0000008CH   SFRSYM    DATA     BYTE      TH0
      000000B8H.4 SFRSYM    DATA     BIT       IP_PS0
      0000008DH   SFRSYM    DATA     BYTE      TH1
      000000FAH   SFRSYM    DATA     BYTE      PCA0H
      000000B8H.1 SFRSYM    DATA     BIT       IP_PT0
LX51 LINKER/LOCATER V4.66.97.0                                                        02/10/2023  14:24:31  PAGE 30


      000000B8H.3 SFRSYM    DATA     BIT       IP_PT1
      000000C0H.2 SFRSYM    DATA     BIT       SMB0CN0_ARBLOST
      000000B8H.5 SFRSYM    DATA     BIT       IP_PT2
      0000008AH   SFRSYM    DATA     BYTE      TL0
      000000AAH   SFRSYM    DATA     BYTE      CS0CF
      000000F8H.1 SFRSYM    DATA     BIT       SPI0CN0_TXBMT
      000000D0H.5 SFRSYM    DATA     BIT       PSW_F0
      000000A8H.6 SFRSYM    DATA     BIT       IE_ESPI0
      0000008BH   SFRSYM    DATA     BYTE      TL1
      000000F9H   SFRSYM    DATA     BYTE      PCA0L
      000000C0H.0 SFRSYM    DATA     BIT       SMB0CN0_SI
      000000D0H.1 SFRSYM    DATA     BIT       PSW_F1
      00000080H.0 SFRSYM    DATA     BIT       P0_B0
      000000B8H.0 SFRSYM    DATA     BIT       IP_PX0
      00000090H.0 SFRSYM    DATA     BIT       P1_B0
      00000080H.1 SFRSYM    DATA     BIT       P0_B1
      000000B8H.2 SFRSYM    DATA     BIT       IP_PX1
      000000EEH   SFRSYM    DATA     BYTE      CS0DH
      0000009BH   SFRSYM    DATA     BYTE      CMP0CN0
      00000088H.1 SFRSYM    DATA     BIT       TCON_IE0
      00000090H.1 SFRSYM    DATA     BIT       P1_B1
      00000080H.2 SFRSYM    DATA     BIT       P0_B2
      00000088H.3 SFRSYM    DATA     BIT       TCON_IE1
      00000090H.2 SFRSYM    DATA     BIT       P1_B2
      00000080H.3 SFRSYM    DATA     BIT       P0_B3
      000000C0H   SFRSYM    DATA     BYTE      SMB0CN0
      00000090H.3 SFRSYM    DATA     BIT       P1_B3
      00000080H.4 SFRSYM    DATA     BIT       P0_B4
      00000090H.4 SFRSYM    DATA     BIT       P1_B4
      00000080H.5 SFRSYM    DATA     BIT       P0_B5
      000000EDH   SFRSYM    DATA     BYTE      CS0DL
      00000090H.5 SFRSYM    DATA     BIT       P1_B5
      00000080H.6 SFRSYM    DATA     BIT       P0_B6
      00000090H.6 SFRSYM    DATA     BIT       P1_B6
      00000080H.7 SFRSYM    DATA     BIT       P0_B7
      00000090H.7 SFRSYM    DATA     BIT       P1_B7
      000000A0H.7 SFRSYM    DATA     BIT       P2_B7
      00000083H   SFRSYM    DATA     BYTE      DPH
      000000C4H   SFRSYM    DATA     BYTE      ADC0GTH
      000000C8H.7 SFRSYM    DATA     BIT       TMR2CN0_TF2H
      000000C8H.3 SFRSYM    DATA     BIT       TMR2CN0_T2SPLIT
      000000D0H.6 SFRSYM    DATA     BIT       PSW_AC
      000000F8H   SFRSYM    DATA     BYTE      SPI0CN0
      000000B3H   SFRSYM    DATA     BYTE      HFO0CAL
      000000DEH   SFRSYM    DATA     BYTE      CS0SE
      00000088H.5 SFRSYM    DATA     BIT       TCON_TF0
      00000098H.0 SFRSYM    DATA     BIT       SCON0_RI
      00000082H   SFRSYM    DATA     BYTE      DPL
      00000088H.7 SFRSYM    DATA     BIT       TCON_TF1
      00000099H   SFRSYM    DATA     BYTE      SBUF0
      00000087H   SFRSYM    DATA     BYTE      PCON0
      000000B9H   SFRSYM    DATA     BYTE      IREF0CF
      000000C3H   SFRSYM    DATA     BYTE      ADC0GTL
      000000C8H.6 SFRSYM    DATA     BIT       TMR2CN0_TF2L
      00000098H.1 SFRSYM    DATA     BIT       SCON0_TI
      000000E8H.0 SFRSYM    DATA     BIT       ADC0CN0_ADCM0
      000000C6H   SFRSYM    DATA     BYTE      ADC0LTH
      00000088H.0 SFRSYM    DATA     BIT       TCON_IT0
      000000B0H.1 SFRSYM    DATA     BIT       CS0CN0_CSPME
      000000E8H.1 SFRSYM    DATA     BIT       ADC0CN0_ADCM1
      000000EFH   SFRSYM    DATA     BYTE      RSTSRC
      000000D7H   SFRSYM    DATA     BYTE      P0MAT
LX51 LINKER/LOCATER V4.66.97.0                                                        02/10/2023  14:24:31  PAGE 31


      00000086H   SFRSYM    DATA     BYTE      CRC0DAT
      00000088H.2 SFRSYM    DATA     BIT       TCON_IT1
      000000E8H.2 SFRSYM    DATA     BIT       ADC0CN0_ADCM2
      00000098H   SFRSYM    DATA     BYTE      SCON0
      000000CFH   SFRSYM    DATA     BYTE      P1MAT
      000000DEH   SFRSYM    DATA     BYTE      CS0PM
      000000E8H.3 SFRSYM    DATA     BIT       ADC0CN0_ADWINT
      000000E8H.4 SFRSYM    DATA     BIT       ADC0CN0_ADBUSY
      000000F5H   SFRSYM    DATA     BYTE      SMB0ADM
      000000C5H   SFRSYM    DATA     BYTE      ADC0LTL
      000000F8H.5 SFRSYM    DATA     BIT       SPI0CN0_MODF
      000000B8H.6 SFRSYM    DATA     BIT       IP_PSPI0
      000000B0H.6 SFRSYM    DATA     BIT       CS0CN0_CSEOS
      000000C8H   SFRSYM    DATA     BYTE      TMR2CN0
      00000091H   SFRSYM    DATA     BYTE      TMR3CN0
      000000F4H   SFRSYM    DATA     BYTE      SMB0ADR
      00000088H.4 SFRSYM    DATA     BIT       TCON_TR0
      000000B0H.5 SFRSYM    DATA     BIT       CS0CN0_CSINT
      000000ABH   SFRSYM    DATA     BYTE      CS0MX
      000000C8H.4 SFRSYM    DATA     BIT       TMR2CN0_TF2CEN
      00000088H.6 SFRSYM    DATA     BIT       TCON_TR1
      000000C2H   SFRSYM    DATA     BYTE      SMB0DAT
      00000099H   SFRSYM    DATA     BYTE      P0DRV
      000000DDH   SFRSYM    DATA     BYTE      CS0SS
      000000CDH   SFRSYM    DATA     BYTE      TMR2H
      000000A1H   SFRSYM    DATA     BYTE      SPI0CFG
      0000009BH   SFRSYM    DATA     BYTE      P1DRV
      00000095H   SFRSYM    DATA     BYTE      TMR3H
      0000009DH   SFRSYM    DATA     BYTE      P2DRV
      0000009AH   SFRSYM    DATA     BYTE      CRC0CNT
      000000CCH   SFRSYM    DATA     BYTE      TMR2L
      000000ACH   SFRSYM    DATA     BYTE      RTC0ADR
      000000F8H.7 SFRSYM    DATA     BIT       SPI0CN0_SPIF
      00000094H   SFRSYM    DATA     BYTE      TMR3L
      000000BBH   SFRSYM    DATA     BYTE      ADC0PWR
      000000A8H.7 SFRSYM    DATA     BIT       IE_EA
      000000ADH   SFRSYM    DATA     BYTE      RTC0DAT
      000000B0H.3 SFRSYM    DATA     BIT       CS0CN0_CSCMPEN
      000000B6H   SFRSYM    DATA     BYTE      FLSCL
      000000C8H.5 SFRSYM    DATA     BIT       TMR2CN0_TF2LEN
      000000F8H.6 SFRSYM    DATA     BIT       SPI0CN0_WCOL
      000000F8H.2 SFRSYM    DATA     BIT       SPI0CN0_NSSMD0
      000000D0H.7 SFRSYM    DATA     BIT       PSW_CY
      000000A3H   SFRSYM    DATA     BYTE      SPI0DAT
      000000F8H.3 SFRSYM    DATA     BIT       SPI0CN0_NSSMD1
      000000BDH   SFRSYM    DATA     WORD      ADC0
      0000008EH   SFRSYM    DATA     BYTE      TOFFH
      000000D0H   SFRSYM    DATA     BYTE      PSW
      000000DFH   SFRSYM    DATA     BYTE      PCA0PWM
      000000E2H   SFRSYM    DATA     BYTE      REVID
      0000008DH   SFRSYM    DATA     BYTE      TOFFL
      000000B7H   SFRSYM    DATA     BYTE      FLKEY
      000000BAH   SFRSYM    DATA     BYTE      ADC0AC

      ---         MODULE    ---      ---       ?C_STARTUP
      01000000H   PUBLIC    CODE     NEAR LAB  ?C_STARTUP
      000000E0H   SFRSYM    DATA     BYTE      ACC
      000000F0H   SFRSYM    DATA     BYTE      B
      00000083H   SFRSYM    DATA     BYTE      DPH
      00000082H   SFRSYM    DATA     BYTE      DPL
      000000A0H   SFRSYM    DATA     BYTE      PPAGE_SFR
      00000081H   SFRSYM    DATA     BYTE      SP
LX51 LINKER/LOCATER V4.66.97.0                                                        02/10/2023  14:24:31  PAGE 32


      00000000H   SYMBOL    NUMBER   ---       IBPSTACK
      00000100H   SYMBOL    NUMBER   ---       IBPSTACKTOP
      00000080H   SYMBOL    NUMBER   ---       IDATALEN
      01001082H   SYMBOL    CODE     NEAR LAB  IDATALOOP
      00000000H   SYMBOL    NUMBER   ---       PBPSTACK
      00000100H   SYMBOL    NUMBER   ---       PBPSTACKTOP
      00000000H   SYMBOL    NUMBER   ---       PDATALEN
      00000000H   SYMBOL    NUMBER   ---       PDATASTART
      00000000H   SYMBOL    NUMBER   ---       PPAGE
      00000000H   SYMBOL    NUMBER   ---       PPAGEENABLE
      0100107FH   SYMBOL    CODE     NEAR LAB  STARTUP1
      00000000H   SYMBOL    NUMBER   ---       XBPSTACK
      00010000H   SYMBOL    NUMBER   ---       XBPSTACKTOP
      00000000H   SYMBOL    NUMBER   ---       XDATALEN
      00000000H   SYMBOL    NUMBER   ---       XDATASTART

      01000000H   BLOCK     CODE     NEAR LAB  LVL=0
      01000000H   LINE      CODE     ---       #126
      ---         BLOCKEND  ---      ---       LVL=0

      0100107FH   BLOCK     CODE     NEAR LAB  LVL=0
      0100107FH   LINE      CODE     ---       #138
      01001081H   LINE      CODE     ---       #139
      01001082H   LINE      CODE     ---       #140
      01001083H   LINE      CODE     ---       #141
      01001085H   LINE      CODE     ---       #190
      01001088H   LINE      CODE     ---       #201
      ---         BLOCKEND  ---      ---       LVL=0

      ---         MODULE    ---      ---       SOLARMPPTCHARGER_MAIN
      0200008BH   PUBLIC    PDATA    BYTE      mainEvalPhase
      01001743H   PUBLIC    CODE     ---       main
      000000A2H   SFRSYM    DATA     BYTE      SPI0CKR
      00000080H   SFRSYM    DATA     BYTE      P0
      000000D0H.2 SFRSYM    DATA     BIT       PSW_OV
      000000B1H   SFRSYM    DATA     BYTE      XOSC0CN
      00000090H   SFRSYM    DATA     BYTE      P1
      000000A0H   SFRSYM    DATA     BYTE      P2
      00000097H   SFRSYM    DATA     BYTE      ADC0CF
      000000C0H.7 SFRSYM    DATA     BIT       SMB0CN0_MASTER
      000000F9H   SFRSYM    DATA     WORD      PCA0
      000000AEH   SFRSYM    DATA     BYTE      RTC0KEY
      000000E6H   SFRSYM    DATA     BYTE      EIE1
      000000C0H.1 SFRSYM    DATA     BIT       SMB0CN0_ACK
      000000E7H   SFRSYM    DATA     BYTE      EIE2
      0000008FH   SFRSYM    DATA     BYTE      PSCTL
      000000E4H   SFRSYM    DATA     BYTE      IT01CF
      000000B0H   SFRSYM    DATA     BYTE      CS0CN0
      000000C0H.6 SFRSYM    DATA     BIT       SMB0CN0_TXMODE
      000000E3H   SFRSYM    DATA     BYTE      DERIVID
      000000AFH   SFRSYM    DATA     BYTE      CS0MD1
      000000A7H   SFRSYM    DATA     BYTE      SFRPAGE
      000000F3H   SFRSYM    DATA     BYTE      CS0MD2
      000000A4H   SFRSYM    DATA     BYTE      P0MDOUT
      000000F3H   SFRSYM    DATA     BYTE      CS0MD3
      000000A5H   SFRSYM    DATA     BYTE      P1MDOUT
      000000E8H.5 SFRSYM    DATA     BIT       ADC0CN0_ADINT
      000000CBH   SFRSYM    DATA     BYTE      TMR2RLH
      000000A6H   SFRSYM    DATA     BYTE      P2MDOUT
      000000A8H   SFRSYM    DATA     BYTE      IE
      00000093H   SFRSYM    DATA     BYTE      TMR3RLH
      000000F6H   SFRSYM    DATA     BYTE      EIP1
LX51 LINKER/LOCATER V4.66.97.0                                                        02/10/2023  14:24:31  PAGE 33


      000000F7H   SFRSYM    DATA     BYTE      EIP2
      00000098H.2 SFRSYM    DATA     BIT       SCON0_RB8
      000000CAH   SFRSYM    DATA     BYTE      TMR2RLL
      000000FCH   SFRSYM    DATA     BYTE      PCA0CPH0
      00000092H   SFRSYM    DATA     BYTE      TMR3RLL
      000000EAH   SFRSYM    DATA     BYTE      PCA0CPH1
      00000098H.3 SFRSYM    DATA     BIT       SCON0_TB8
      000000B0H.7 SFRSYM    DATA     BIT       CS0CN0_CSEN
      000000F0H.0 SFRSYM    DATA     BIT       B_B0
      00000082H   SFRSYM    DATA     WORD      DP
      000000ECH   SFRSYM    DATA     BYTE      PCA0CPH2
      000000F0H.1 SFRSYM    DATA     BIT       B_B1
      000000C3H   SFRSYM    DATA     WORD      ADC0GT
      000000F0H.2 SFRSYM    DATA     BIT       B_B2
      000000FBH   SFRSYM    DATA     BYTE      PCA0CPL0
      000000F0H.3 SFRSYM    DATA     BIT       B_B3
      000000D9H   SFRSYM    DATA     BYTE      PCA0MD
      000000DAH   SFRSYM    DATA     BYTE      PCA0CPM0
      000000E9H   SFRSYM    DATA     BYTE      PCA0CPL1
      000000F0H.4 SFRSYM    DATA     BIT       B_B4
      000000DBH   SFRSYM    DATA     BYTE      PCA0CPM1
      000000EBH   SFRSYM    DATA     BYTE      PCA0CPL2
      000000F0H.5 SFRSYM    DATA     BIT       B_B5
      000000DCH   SFRSYM    DATA     BYTE      PCA0CPM2
      000000B8H   SFRSYM    DATA     BYTE      IP
      000000BCH   SFRSYM    DATA     BYTE      ADC0TK
      000000F0H.6 SFRSYM    DATA     BIT       B_B6
      000000C5H   SFRSYM    DATA     WORD      ADC0LT
      000000D6H   SFRSYM    DATA     BYTE      IREF0CN0
      00000098H.5 SFRSYM    DATA     BIT       SCON0_MCE
      000000F0H.7 SFRSYM    DATA     BIT       B_B7
      000000E1H   SFRSYM    DATA     BYTE      XBR0
      000000C1H   SFRSYM    DATA     BYTE      SMB0CF
      000000E2H   SFRSYM    DATA     BYTE      XBR1
      000000D2H   SFRSYM    DATA     BYTE      CS0SCAN0
      000000C0H.5 SFRSYM    DATA     BIT       SMB0CN0_STA
      000000E3H   SFRSYM    DATA     BYTE      XBR2
      000000D3H   SFRSYM    DATA     BYTE      CS0SCAN1
      00000096H   SFRSYM    DATA     BYTE      ADC0MX
      000000E0H.0 SFRSYM    DATA     BIT       ACC_ACC0
      000000D1H   SFRSYM    DATA     BYTE      REF0CN
      000000B2H   SFRSYM    DATA     BYTE      HFO0CN
      0000008EH   SFRSYM    DATA     BYTE      CKCON0
      000000E0H.1 SFRSYM    DATA     BIT       ACC_ACC1
      000000C9H   SFRSYM    DATA     BYTE      REG0CN
      00000085H   SFRSYM    DATA     BYTE      CRC0IN
      000000C8H.2 SFRSYM    DATA     BIT       TMR2CN0_TR2
      000000E0H.2 SFRSYM    DATA     BIT       ACC_ACC2
      000000E0H.3 SFRSYM    DATA     BIT       ACC_ACC3
      00000081H   SFRSYM    DATA     BYTE      SP
      0000009DH   SFRSYM    DATA     BYTE      CMP0MD
      000000E0H.4 SFRSYM    DATA     BIT       ACC_ACC4
      000000D8H.0 SFRSYM    DATA     BIT       PCA0CN0_CCF0
      000000E0H.5 SFRSYM    DATA     BIT       ACC_ACC5
      000000D8H.1 SFRSYM    DATA     BIT       PCA0CN0_CCF1
      000000E0H.6 SFRSYM    DATA     BIT       ACC_ACC6
      000000CCH   SFRSYM    DATA     WORD      TMR2
      000000D8H.2 SFRSYM    DATA     BIT       PCA0CN0_CCF2
      000000E0H.7 SFRSYM    DATA     BIT       ACC_ACC7
      00000094H   SFRSYM    DATA     WORD      TMR3
      000000B0H.0 SFRSYM    DATA     BIT       CS0CN0_CSCMPF
      000000C0H.3 SFRSYM    DATA     BIT       SMB0CN0_ACKRQ
LX51 LINKER/LOCATER V4.66.97.0                                                        02/10/2023  14:24:31  PAGE 34


      000000FFH   SFRSYM    DATA     BYTE      VDM0CN
      000000F1H   SFRSYM    DATA     BYTE      P0MDIN
      00000098H.4 SFRSYM    DATA     BIT       SCON0_REN
      000000F2H   SFRSYM    DATA     BYTE      P1MDIN
      000000FEH   SFRSYM    DATA     BYTE      CS0THH
      000000C0H.4 SFRSYM    DATA     BIT       SMB0CN0_STO
      000000B5H   SFRSYM    DATA     BYTE      PMU0CF
      000000C7H   SFRSYM    DATA     BYTE      P0MASK
      000000BFH   SFRSYM    DATA     BYTE      P1MASK
      000000FDH   SFRSYM    DATA     BYTE      CS0THL
      000000D0H.3 SFRSYM    DATA     BIT       PSW_RS0
      000000D8H.7 SFRSYM    DATA     BIT       PCA0CN0_CF
      000000F8H.4 SFRSYM    DATA     BIT       SPI0CN0_RXOVRN
      000000D0H.4 SFRSYM    DATA     BIT       PSW_RS1
      000000C8H.0 SFRSYM    DATA     BIT       TMR2CN0_T2XCLK0
      000000C8H.1 SFRSYM    DATA     BIT       TMR2CN0_T2XCLK1
      000000E8H.7 SFRSYM    DATA     BIT       ADC0CN0_ADEN
      00000089H   SFRSYM    DATA     BYTE      TMOD
      00000088H   SFRSYM    DATA     BYTE      TCON
      000000B5H   SFRSYM    DATA     BYTE      PMU0MD
      000000CEH   SFRSYM    DATA     BYTE      PMU0FL
      0000009CH   SFRSYM    DATA     BYTE      CRC0FLIP
      000000D0H.0 SFRSYM    DATA     BIT       PSW_PARITY
      000000A8H.4 SFRSYM    DATA     BIT       IE_ES0
      0000009FH   SFRSYM    DATA     BYTE      CMP0MX
      000000A8H.1 SFRSYM    DATA     BIT       IE_ET0
      000000A8H.3 SFRSYM    DATA     BIT       IE_ET1
      000000D4H   SFRSYM    DATA     BYTE      P0SKIP
      000000A8H.5 SFRSYM    DATA     BIT       IE_ET2
      000000D5H   SFRSYM    DATA     BYTE      P1SKIP
      000000E8H   SFRSYM    DATA     BYTE      ADC0CN0
      000000A8H.0 SFRSYM    DATA     BIT       IE_EX0
      000000D8H.6 SFRSYM    DATA     BIT       PCA0CN0_CR
      000000A8H.2 SFRSYM    DATA     BIT       IE_EX1
      00000098H.7 SFRSYM    DATA     BIT       SCON0_SMODE
      000000A9H   SFRSYM    DATA     BYTE      CLKSEL
      000000F8H.0 SFRSYM    DATA     BIT       SPI0CN0_SPIEN
      000000F0H   SFRSYM    DATA     BYTE      B
      000000BEH   SFRSYM    DATA     BYTE      ADC0H
      0000009EH   SFRSYM    DATA     BYTE      CRC0AUTO
      000000B0H.4 SFRSYM    DATA     BIT       CS0CN0_CSBUSY
      000000E8H.6 SFRSYM    DATA     BIT       ADC0CN0_ADBMEN
      000000CAH   SFRSYM    DATA     WORD      TMR2RL
      000000BDH   SFRSYM    DATA     BYTE      ADC0L
      00000092H   SFRSYM    DATA     WORD      TMR3RL
      000000D8H   SFRSYM    DATA     BYTE      PCA0CN0
      000000E0H   SFRSYM    DATA     BYTE      ACC
      000000FBH   SFRSYM    DATA     WORD      PCA0CP0
      000000E9H   SFRSYM    DATA     WORD      PCA0CP1
      000000EBH   SFRSYM    DATA     WORD      PCA0CP2
      00000084H   SFRSYM    DATA     BYTE      CRC0CN0
      0000008CH   SFRSYM    DATA     BYTE      TH0
      000000B8H.4 SFRSYM    DATA     BIT       IP_PS0
      0000008DH   SFRSYM    DATA     BYTE      TH1
      000000FAH   SFRSYM    DATA     BYTE      PCA0H
      000000B8H.1 SFRSYM    DATA     BIT       IP_PT0
      000000B8H.3 SFRSYM    DATA     BIT       IP_PT1
      000000C0H.2 SFRSYM    DATA     BIT       SMB0CN0_ARBLOST
      000000B8H.5 SFRSYM    DATA     BIT       IP_PT2
      0000008AH   SFRSYM    DATA     BYTE      TL0
      000000AAH   SFRSYM    DATA     BYTE      CS0CF
      000000F8H.1 SFRSYM    DATA     BIT       SPI0CN0_TXBMT
LX51 LINKER/LOCATER V4.66.97.0                                                        02/10/2023  14:24:31  PAGE 35


      000000D0H.5 SFRSYM    DATA     BIT       PSW_F0
      000000A8H.6 SFRSYM    DATA     BIT       IE_ESPI0
      0000008BH   SFRSYM    DATA     BYTE      TL1
      000000F9H   SFRSYM    DATA     BYTE      PCA0L
      000000C0H.0 SFRSYM    DATA     BIT       SMB0CN0_SI
      000000D0H.1 SFRSYM    DATA     BIT       PSW_F1
      00000080H.0 SFRSYM    DATA     BIT       P0_B0
      000000B8H.0 SFRSYM    DATA     BIT       IP_PX0
      00000090H.0 SFRSYM    DATA     BIT       P1_B0
      00000080H.1 SFRSYM    DATA     BIT       P0_B1
      000000B8H.2 SFRSYM    DATA     BIT       IP_PX1
      000000EEH   SFRSYM    DATA     BYTE      CS0DH
      0000009BH   SFRSYM    DATA     BYTE      CMP0CN0
      00000088H.1 SFRSYM    DATA     BIT       TCON_IE0
      00000090H.1 SFRSYM    DATA     BIT       P1_B1
      00000080H.2 SFRSYM    DATA     BIT       P0_B2
      00000088H.3 SFRSYM    DATA     BIT       TCON_IE1
      00000090H.2 SFRSYM    DATA     BIT       P1_B2
      00000080H.3 SFRSYM    DATA     BIT       P0_B3
      000000C0H   SFRSYM    DATA     BYTE      SMB0CN0
      00000090H.3 SFRSYM    DATA     BIT       P1_B3
      00000080H.4 SFRSYM    DATA     BIT       P0_B4
      00000090H.4 SFRSYM    DATA     BIT       P1_B4
      00000080H.5 SFRSYM    DATA     BIT       P0_B5
      000000EDH   SFRSYM    DATA     BYTE      CS0DL
      00000090H.5 SFRSYM    DATA     BIT       P1_B5
      00000080H.6 SFRSYM    DATA     BIT       P0_B6
      00000090H.6 SFRSYM    DATA     BIT       P1_B6
      00000080H.7 SFRSYM    DATA     BIT       P0_B7
      00000090H.7 SFRSYM    DATA     BIT       P1_B7
      000000A0H.7 SFRSYM    DATA     BIT       P2_B7
      00000083H   SFRSYM    DATA     BYTE      DPH
      000000C4H   SFRSYM    DATA     BYTE      ADC0GTH
      000000C8H.7 SFRSYM    DATA     BIT       TMR2CN0_TF2H
      000000C8H.3 SFRSYM    DATA     BIT       TMR2CN0_T2SPLIT
      000000D0H.6 SFRSYM    DATA     BIT       PSW_AC
      000000F8H   SFRSYM    DATA     BYTE      SPI0CN0
      000000B3H   SFRSYM    DATA     BYTE      HFO0CAL
      000000DEH   SFRSYM    DATA     BYTE      CS0SE
      00000088H.5 SFRSYM    DATA     BIT       TCON_TF0
      00000098H.0 SFRSYM    DATA     BIT       SCON0_RI
      00000082H   SFRSYM    DATA     BYTE      DPL
      00000088H.7 SFRSYM    DATA     BIT       TCON_TF1
      00000099H   SFRSYM    DATA     BYTE      SBUF0
      00000087H   SFRSYM    DATA     BYTE      PCON0
      000000B9H   SFRSYM    DATA     BYTE      IREF0CF
      000000C3H   SFRSYM    DATA     BYTE      ADC0GTL
      000000C8H.6 SFRSYM    DATA     BIT       TMR2CN0_TF2L
      00000098H.1 SFRSYM    DATA     BIT       SCON0_TI
      000000E8H.0 SFRSYM    DATA     BIT       ADC0CN0_ADCM0
      000000C6H   SFRSYM    DATA     BYTE      ADC0LTH
      00000088H.0 SFRSYM    DATA     BIT       TCON_IT0
      000000B0H.1 SFRSYM    DATA     BIT       CS0CN0_CSPME
      000000E8H.1 SFRSYM    DATA     BIT       ADC0CN0_ADCM1
      000000EFH   SFRSYM    DATA     BYTE      RSTSRC
      000000D7H   SFRSYM    DATA     BYTE      P0MAT
      00000086H   SFRSYM    DATA     BYTE      CRC0DAT
      00000088H.2 SFRSYM    DATA     BIT       TCON_IT1
      000000E8H.2 SFRSYM    DATA     BIT       ADC0CN0_ADCM2
      00000098H   SFRSYM    DATA     BYTE      SCON0
      000000CFH   SFRSYM    DATA     BYTE      P1MAT
      000000DEH   SFRSYM    DATA     BYTE      CS0PM
LX51 LINKER/LOCATER V4.66.97.0                                                        02/10/2023  14:24:31  PAGE 36


      000000E8H.3 SFRSYM    DATA     BIT       ADC0CN0_ADWINT
      000000E8H.4 SFRSYM    DATA     BIT       ADC0CN0_ADBUSY
      000000F5H   SFRSYM    DATA     BYTE      SMB0ADM
      000000C5H   SFRSYM    DATA     BYTE      ADC0LTL
      000000F8H.5 SFRSYM    DATA     BIT       SPI0CN0_MODF
      000000B8H.6 SFRSYM    DATA     BIT       IP_PSPI0
      000000B0H.6 SFRSYM    DATA     BIT       CS0CN0_CSEOS
      000000C8H   SFRSYM    DATA     BYTE      TMR2CN0
      00000091H   SFRSYM    DATA     BYTE      TMR3CN0
      000000F4H   SFRSYM    DATA     BYTE      SMB0ADR
      00000088H.4 SFRSYM    DATA     BIT       TCON_TR0
      000000B0H.5 SFRSYM    DATA     BIT       CS0CN0_CSINT
      000000ABH   SFRSYM    DATA     BYTE      CS0MX
      000000C8H.4 SFRSYM    DATA     BIT       TMR2CN0_TF2CEN
      00000088H.6 SFRSYM    DATA     BIT       TCON_TR1
      000000C2H   SFRSYM    DATA     BYTE      SMB0DAT
      00000099H   SFRSYM    DATA     BYTE      P0DRV
      000000DDH   SFRSYM    DATA     BYTE      CS0SS
      00000080H.0 SFRSYM    DATA     BIT       AUX
      000000CDH   SFRSYM    DATA     BYTE      TMR2H
      000000A1H   SFRSYM    DATA     BYTE      SPI0CFG
      0000009BH   SFRSYM    DATA     BYTE      P1DRV
      00000095H   SFRSYM    DATA     BYTE      TMR3H
      0000009DH   SFRSYM    DATA     BYTE      P2DRV
      0000009AH   SFRSYM    DATA     BYTE      CRC0CNT
      000000CCH   SFRSYM    DATA     BYTE      TMR2L
      000000ACH   SFRSYM    DATA     BYTE      RTC0ADR
      000000F8H.7 SFRSYM    DATA     BIT       SPI0CN0_SPIF
      00000094H   SFRSYM    DATA     BYTE      TMR3L
      000000BBH   SFRSYM    DATA     BYTE      ADC0PWR
      000000A8H.7 SFRSYM    DATA     BIT       IE_EA
      000000ADH   SFRSYM    DATA     BYTE      RTC0DAT
      000000B0H.3 SFRSYM    DATA     BIT       CS0CN0_CSCMPEN
      000000B6H   SFRSYM    DATA     BYTE      FLSCL
      000000C8H.5 SFRSYM    DATA     BIT       TMR2CN0_TF2LEN
      000000F8H.6 SFRSYM    DATA     BIT       SPI0CN0_WCOL
      000000F8H.2 SFRSYM    DATA     BIT       SPI0CN0_NSSMD0
      000000D0H.7 SFRSYM    DATA     BIT       PSW_CY
      000000A3H   SFRSYM    DATA     BYTE      SPI0DAT
      000000F8H.3 SFRSYM    DATA     BIT       SPI0CN0_NSSMD1
      000000BDH   SFRSYM    DATA     WORD      ADC0
      0000008EH   SFRSYM    DATA     BYTE      TOFFH
      000000D0H   SFRSYM    DATA     BYTE      PSW
      000000DFH   SFRSYM    DATA     BYTE      PCA0PWM
      000000E2H   SFRSYM    DATA     BYTE      REVID
      0000008DH   SFRSYM    DATA     BYTE      TOFFL
      000000B7H   SFRSYM    DATA     BYTE      FLKEY
      000000BAH   SFRSYM    DATA     BYTE      ADC0AC

      01001743H   BLOCK     CODE     ---       LVL=0
      01001743H   LINE      CODE     ---       #126
      01001743H   LINE      CODE     ---       #128
      01001746H   LINE      CODE     ---       #131
      01001749H   LINE      CODE     ---       #132
      0100174CH   LINE      CODE     ---       #133
      0100174FH   LINE      CODE     ---       #134
      01001752H   LINE      CODE     ---       #135
      01001755H   LINE      CODE     ---       #136
      01001758H   LINE      CODE     ---       #137
      0100175BH   LINE      CODE     ---       #138
      0100175EH   LINE      CODE     ---       #139
      01001761H   LINE      CODE     ---       #140
LX51 LINKER/LOCATER V4.66.97.0                                                        02/10/2023  14:24:31  PAGE 37


      01001764H   LINE      CODE     ---       #142
      01001764H   LINE      CODE     ---       #144
      01001767H   LINE      CODE     ---       #147
      0100176AH   LINE      CODE     ---       #150
      0100176DH   LINE      CODE     ---       #151
      01001770H   LINE      CODE     ---       #152
      01001770H   LINE      CODE     ---       #156
      01001773H   LINE      CODE     ---       #157
      01001776H   LINE      CODE     ---       #160
      01001783H   LINE      CODE     ---       #161
      01001783H   LINE      CODE     ---       #162
      01001786H   LINE      CODE     ---       #163
      01001788H   LINE      CODE     ---       #164
      01001788H   LINE      CODE     ---       #165
      0100178BH   LINE      CODE     ---       #166
      0100178DH   LINE      CODE     ---       #167
      0100178DH   LINE      CODE     ---       #168
      01001790H   LINE      CODE     ---       #169
      01001790H   LINE      CODE     ---       #170
      01001790H   LINE      CODE     ---       #171
      01001799H   LINE      CODE     ---       #172
      0100179AH   LINE      CODE     ---       #173
      0100179AH   LINE      CODE     ---       #174
      ---         BLOCKEND  ---      ---       LVL=0

      ---         MODULE    ---      ---       ADC
      00000048H   PUBLIC    IDATA    ---       adcTempAvgArray
      01001FFCH   PUBLIC    CODE     INT       adcVRefMv
      00000047H   PUBLIC    IDATA    BYTE      adcTempAvgIndex
      00000045H   PUBLIC    IDATA    WORD      adcTempMeasCount
      00000022H.5 PUBLIC    BIT      BIT       adcTimer0ReloadInc
      00000035H   PUBLIC    IDATA    ---       adcFilterSum
      00000034H   PUBLIC    IDATA    BYTE      adcBuckEvalCount
      00000032H   PUBLIC    IDATA    WORD      adcTempExtAvgAdcVal
      00000030H   PUBLIC    IDATA    WORD      adcTempIntAvgAdcVal
      0000002FH   PUBLIC    IDATA    BYTE      adcTempSensorIndex
      0000002EH   PUBLIC    IDATA    BYTE      adcTimer0Reload
      0000002DH   PUBLIC    IDATA    BYTE      adcMeasIndex
      0000002CH   PUBLIC    IDATA    BYTE      adcStoredMeasIndex
      00000024H   PUBLIC    IDATA    ---       adcFilteredAdcVal
      01001843H   PUBLIC    CODE     ---       __adc2ExtT10
      01000EB8H   PUBLIC    CODE     ---       __adc2IntT10
      01001B77H   PUBLIC    CODE     ---       __adcIsr2mA
      01001C0BH   PUBLIC    CODE     ---       __adc2mA
      01001CF6H   PUBLIC    CODE     ---       __adcIsr2mV
      01001CD7H   PUBLIC    CODE     ---       __adc2mV
      01000FEFH   PUBLIC    CODE     ---       __ADC_PushTemp
      010012A0H   PUBLIC    CODE     ---       __ADC_PushFilteredVal
      01001DB7H   PUBLIC    CODE     ---       __ADC_GetSingleReading
      01001A17H   PUBLIC    CODE     ---       __ADC_DelayMsec
      01000C70H   PUBLIC    CODE     ---       ADC0EOC_ISR
      01001624H   PUBLIC    CODE     ---       TIMER0_ISR
      01001B50H   PUBLIC    CODE     ---       _ADC_GetValueForIsr
      010017F1H   PUBLIC    CODE     ---       _ADC_GetValue
      01000B8FH   PUBLIC    CODE     ---       ADC_Init
      000000A2H   SFRSYM    DATA     BYTE      SPI0CKR
      00000080H   SFRSYM    DATA     BYTE      P0
      000000D0H.2 SFRSYM    DATA     BIT       PSW_OV
      000000B1H   SFRSYM    DATA     BYTE      XOSC0CN
      00000090H   SFRSYM    DATA     BYTE      P1
      000000A0H   SFRSYM    DATA     BYTE      P2
      00000097H   SFRSYM    DATA     BYTE      ADC0CF
LX51 LINKER/LOCATER V4.66.97.0                                                        02/10/2023  14:24:31  PAGE 38


      000000C0H.7 SFRSYM    DATA     BIT       SMB0CN0_MASTER
      000000F9H   SFRSYM    DATA     WORD      PCA0
      000000AEH   SFRSYM    DATA     BYTE      RTC0KEY
      000000E6H   SFRSYM    DATA     BYTE      EIE1
      000000C0H.1 SFRSYM    DATA     BIT       SMB0CN0_ACK
      000000E7H   SFRSYM    DATA     BYTE      EIE2
      0000008FH   SFRSYM    DATA     BYTE      PSCTL
      000000E4H   SFRSYM    DATA     BYTE      IT01CF
      000000B0H   SFRSYM    DATA     BYTE      CS0CN0
      000000C0H.6 SFRSYM    DATA     BIT       SMB0CN0_TXMODE
      000000E3H   SFRSYM    DATA     BYTE      DERIVID
      000000AFH   SFRSYM    DATA     BYTE      CS0MD1
      000000A7H   SFRSYM    DATA     BYTE      SFRPAGE
      000000F3H   SFRSYM    DATA     BYTE      CS0MD2
      000000A4H   SFRSYM    DATA     BYTE      P0MDOUT
      000000F3H   SFRSYM    DATA     BYTE      CS0MD3
      000000A5H   SFRSYM    DATA     BYTE      P1MDOUT
      000000E8H.5 SFRSYM    DATA     BIT       ADC0CN0_ADINT
      000000CBH   SFRSYM    DATA     BYTE      TMR2RLH
      000000A6H   SFRSYM    DATA     BYTE      P2MDOUT
      000000A8H   SFRSYM    DATA     BYTE      IE
      00000093H   SFRSYM    DATA     BYTE      TMR3RLH
      000000F6H   SFRSYM    DATA     BYTE      EIP1
      000000F7H   SFRSYM    DATA     BYTE      EIP2
      00000098H.2 SFRSYM    DATA     BIT       SCON0_RB8
      000000CAH   SFRSYM    DATA     BYTE      TMR2RLL
      000000FCH   SFRSYM    DATA     BYTE      PCA0CPH0
      00000092H   SFRSYM    DATA     BYTE      TMR3RLL
      000000EAH   SFRSYM    DATA     BYTE      PCA0CPH1
      00000098H.3 SFRSYM    DATA     BIT       SCON0_TB8
      000000B0H.7 SFRSYM    DATA     BIT       CS0CN0_CSEN
      000000F0H.0 SFRSYM    DATA     BIT       B_B0
      00000082H   SFRSYM    DATA     WORD      DP
      000000ECH   SFRSYM    DATA     BYTE      PCA0CPH2
      000000F0H.1 SFRSYM    DATA     BIT       B_B1
      000000C3H   SFRSYM    DATA     WORD      ADC0GT
      000000F0H.2 SFRSYM    DATA     BIT       B_B2
      000000FBH   SFRSYM    DATA     BYTE      PCA0CPL0
      000000F0H.3 SFRSYM    DATA     BIT       B_B3
      000000D9H   SFRSYM    DATA     BYTE      PCA0MD
      000000DAH   SFRSYM    DATA     BYTE      PCA0CPM0
      000000E9H   SFRSYM    DATA     BYTE      PCA0CPL1
      000000F0H.4 SFRSYM    DATA     BIT       B_B4
      000000DBH   SFRSYM    DATA     BYTE      PCA0CPM1
      000000EBH   SFRSYM    DATA     BYTE      PCA0CPL2
      000000F0H.5 SFRSYM    DATA     BIT       B_B5
      000000DCH   SFRSYM    DATA     BYTE      PCA0CPM2
      000000B8H   SFRSYM    DATA     BYTE      IP
      000000BCH   SFRSYM    DATA     BYTE      ADC0TK
      000000F0H.6 SFRSYM    DATA     BIT       B_B6
      000000C5H   SFRSYM    DATA     WORD      ADC0LT
      000000D6H   SFRSYM    DATA     BYTE      IREF0CN0
      00000098H.5 SFRSYM    DATA     BIT       SCON0_MCE
      000000F0H.7 SFRSYM    DATA     BIT       B_B7
      000000E1H   SFRSYM    DATA     BYTE      XBR0
      000000C1H   SFRSYM    DATA     BYTE      SMB0CF
      000000E2H   SFRSYM    DATA     BYTE      XBR1
      000000D2H   SFRSYM    DATA     BYTE      CS0SCAN0
      000000C0H.5 SFRSYM    DATA     BIT       SMB0CN0_STA
      000000E3H   SFRSYM    DATA     BYTE      XBR2
      000000D3H   SFRSYM    DATA     BYTE      CS0SCAN1
      00000096H   SFRSYM    DATA     BYTE      ADC0MX
LX51 LINKER/LOCATER V4.66.97.0                                                        02/10/2023  14:24:31  PAGE 39


      000000E0H.0 SFRSYM    DATA     BIT       ACC_ACC0
      000000D1H   SFRSYM    DATA     BYTE      REF0CN
      000000B2H   SFRSYM    DATA     BYTE      HFO0CN
      0000008EH   SFRSYM    DATA     BYTE      CKCON0
      000000E0H.1 SFRSYM    DATA     BIT       ACC_ACC1
      000000C9H   SFRSYM    DATA     BYTE      REG0CN
      00000085H   SFRSYM    DATA     BYTE      CRC0IN
      000000C8H.2 SFRSYM    DATA     BIT       TMR2CN0_TR2
      000000E0H.2 SFRSYM    DATA     BIT       ACC_ACC2
      000000E0H.3 SFRSYM    DATA     BIT       ACC_ACC3
      00000081H   SFRSYM    DATA     BYTE      SP
      0000009DH   SFRSYM    DATA     BYTE      CMP0MD
      000000E0H.4 SFRSYM    DATA     BIT       ACC_ACC4
      000000D8H.0 SFRSYM    DATA     BIT       PCA0CN0_CCF0
      000000E0H.5 SFRSYM    DATA     BIT       ACC_ACC5
      000000D8H.1 SFRSYM    DATA     BIT       PCA0CN0_CCF1
      000000E0H.6 SFRSYM    DATA     BIT       ACC_ACC6
      000000CCH   SFRSYM    DATA     WORD      TMR2
      000000D8H.2 SFRSYM    DATA     BIT       PCA0CN0_CCF2
      000000E0H.7 SFRSYM    DATA     BIT       ACC_ACC7
      00000094H   SFRSYM    DATA     WORD      TMR3
      000000B0H.0 SFRSYM    DATA     BIT       CS0CN0_CSCMPF
      000000C0H.3 SFRSYM    DATA     BIT       SMB0CN0_ACKRQ
      000000FFH   SFRSYM    DATA     BYTE      VDM0CN
      000000F1H   SFRSYM    DATA     BYTE      P0MDIN
      00000098H.4 SFRSYM    DATA     BIT       SCON0_REN
      000000F2H   SFRSYM    DATA     BYTE      P1MDIN
      000000FEH   SFRSYM    DATA     BYTE      CS0THH
      000000C0H.4 SFRSYM    DATA     BIT       SMB0CN0_STO
      000000B5H   SFRSYM    DATA     BYTE      PMU0CF
      000000C7H   SFRSYM    DATA     BYTE      P0MASK
      000000BFH   SFRSYM    DATA     BYTE      P1MASK
      000000FDH   SFRSYM    DATA     BYTE      CS0THL
      000000D0H.3 SFRSYM    DATA     BIT       PSW_RS0
      000000D8H.7 SFRSYM    DATA     BIT       PCA0CN0_CF
      000000F8H.4 SFRSYM    DATA     BIT       SPI0CN0_RXOVRN
      000000D0H.4 SFRSYM    DATA     BIT       PSW_RS1
      000000C8H.0 SFRSYM    DATA     BIT       TMR2CN0_T2XCLK0
      000000C8H.1 SFRSYM    DATA     BIT       TMR2CN0_T2XCLK1
      000000E8H.7 SFRSYM    DATA     BIT       ADC0CN0_ADEN
      00000089H   SFRSYM    DATA     BYTE      TMOD
      00000088H   SFRSYM    DATA     BYTE      TCON
      000000B5H   SFRSYM    DATA     BYTE      PMU0MD
      000000CEH   SFRSYM    DATA     BYTE      PMU0FL
      0000009CH   SFRSYM    DATA     BYTE      CRC0FLIP
      000000D0H.0 SFRSYM    DATA     BIT       PSW_PARITY
      000000A8H.4 SFRSYM    DATA     BIT       IE_ES0
      0000009FH   SFRSYM    DATA     BYTE      CMP0MX
      000000A8H.1 SFRSYM    DATA     BIT       IE_ET0
      000000A8H.3 SFRSYM    DATA     BIT       IE_ET1
      000000D4H   SFRSYM    DATA     BYTE      P0SKIP
      000000A8H.5 SFRSYM    DATA     BIT       IE_ET2
      000000D5H   SFRSYM    DATA     BYTE      P1SKIP
      000000E8H   SFRSYM    DATA     BYTE      ADC0CN0
      000000A8H.0 SFRSYM    DATA     BIT       IE_EX0
      000000D8H.6 SFRSYM    DATA     BIT       PCA0CN0_CR
      000000A8H.2 SFRSYM    DATA     BIT       IE_EX1
      00000098H.7 SFRSYM    DATA     BIT       SCON0_SMODE
      000000A9H   SFRSYM    DATA     BYTE      CLKSEL
      000000F8H.0 SFRSYM    DATA     BIT       SPI0CN0_SPIEN
      000000F0H   SFRSYM    DATA     BYTE      B
      000000BEH   SFRSYM    DATA     BYTE      ADC0H
LX51 LINKER/LOCATER V4.66.97.0                                                        02/10/2023  14:24:31  PAGE 40


      0000009EH   SFRSYM    DATA     BYTE      CRC0AUTO
      000000B0H.4 SFRSYM    DATA     BIT       CS0CN0_CSBUSY
      000000E8H.6 SFRSYM    DATA     BIT       ADC0CN0_ADBMEN
      000000CAH   SFRSYM    DATA     WORD      TMR2RL
      000000BDH   SFRSYM    DATA     BYTE      ADC0L
      00000092H   SFRSYM    DATA     WORD      TMR3RL
      000000D8H   SFRSYM    DATA     BYTE      PCA0CN0
      000000E0H   SFRSYM    DATA     BYTE      ACC
      000000FBH   SFRSYM    DATA     WORD      PCA0CP0
      000000E9H   SFRSYM    DATA     WORD      PCA0CP1
      000000EBH   SFRSYM    DATA     WORD      PCA0CP2
      00000084H   SFRSYM    DATA     BYTE      CRC0CN0
      0000008CH   SFRSYM    DATA     BYTE      TH0
      000000B8H.4 SFRSYM    DATA     BIT       IP_PS0
      0000008DH   SFRSYM    DATA     BYTE      TH1
      000000FAH   SFRSYM    DATA     BYTE      PCA0H
      000000B8H.1 SFRSYM    DATA     BIT       IP_PT0
      000000B8H.3 SFRSYM    DATA     BIT       IP_PT1
      000000C0H.2 SFRSYM    DATA     BIT       SMB0CN0_ARBLOST
      000000B8H.5 SFRSYM    DATA     BIT       IP_PT2
      0000008AH   SFRSYM    DATA     BYTE      TL0
      000000AAH   SFRSYM    DATA     BYTE      CS0CF
      000000F8H.1 SFRSYM    DATA     BIT       SPI0CN0_TXBMT
      000000D0H.5 SFRSYM    DATA     BIT       PSW_F0
      000000A8H.6 SFRSYM    DATA     BIT       IE_ESPI0
      0000008BH   SFRSYM    DATA     BYTE      TL1
      000000F9H   SFRSYM    DATA     BYTE      PCA0L
      000000C0H.0 SFRSYM    DATA     BIT       SMB0CN0_SI
      000000D0H.1 SFRSYM    DATA     BIT       PSW_F1
      00000080H.0 SFRSYM    DATA     BIT       P0_B0
      000000B8H.0 SFRSYM    DATA     BIT       IP_PX0
      00000090H.0 SFRSYM    DATA     BIT       P1_B0
      00000080H.1 SFRSYM    DATA     BIT       P0_B1
      000000B8H.2 SFRSYM    DATA     BIT       IP_PX1
      000000EEH   SFRSYM    DATA     BYTE      CS0DH
      0000009BH   SFRSYM    DATA     BYTE      CMP0CN0
      00000088H.1 SFRSYM    DATA     BIT       TCON_IE0
      00000090H.1 SFRSYM    DATA     BIT       P1_B1
      00000080H.2 SFRSYM    DATA     BIT       P0_B2
      00000088H.3 SFRSYM    DATA     BIT       TCON_IE1
      00000090H.2 SFRSYM    DATA     BIT       P1_B2
      00000080H.3 SFRSYM    DATA     BIT       P0_B3
      000000C0H   SFRSYM    DATA     BYTE      SMB0CN0
      00000090H.3 SFRSYM    DATA     BIT       P1_B3
      00000080H.4 SFRSYM    DATA     BIT       P0_B4
      00000090H.4 SFRSYM    DATA     BIT       P1_B4
      00000080H.5 SFRSYM    DATA     BIT       P0_B5
      000000EDH   SFRSYM    DATA     BYTE      CS0DL
      00000090H.5 SFRSYM    DATA     BIT       P1_B5
      00000080H.6 SFRSYM    DATA     BIT       P0_B6
      00000090H.6 SFRSYM    DATA     BIT       P1_B6
      00000080H.7 SFRSYM    DATA     BIT       P0_B7
      00000090H.7 SFRSYM    DATA     BIT       P1_B7
      000000A0H.7 SFRSYM    DATA     BIT       P2_B7
      00000083H   SFRSYM    DATA     BYTE      DPH
      000000C4H   SFRSYM    DATA     BYTE      ADC0GTH
      000000C8H.7 SFRSYM    DATA     BIT       TMR2CN0_TF2H
      000000C8H.3 SFRSYM    DATA     BIT       TMR2CN0_T2SPLIT
      000000D0H.6 SFRSYM    DATA     BIT       PSW_AC
      000000F8H   SFRSYM    DATA     BYTE      SPI0CN0
      000000B3H   SFRSYM    DATA     BYTE      HFO0CAL
      000000DEH   SFRSYM    DATA     BYTE      CS0SE
LX51 LINKER/LOCATER V4.66.97.0                                                        02/10/2023  14:24:31  PAGE 41


      00000088H.5 SFRSYM    DATA     BIT       TCON_TF0
      00000098H.0 SFRSYM    DATA     BIT       SCON0_RI
      00000082H   SFRSYM    DATA     BYTE      DPL
      00000088H.7 SFRSYM    DATA     BIT       TCON_TF1
      00000099H   SFRSYM    DATA     BYTE      SBUF0
      00000087H   SFRSYM    DATA     BYTE      PCON0
      000000B9H   SFRSYM    DATA     BYTE      IREF0CF
      000000C3H   SFRSYM    DATA     BYTE      ADC0GTL
      000000C8H.6 SFRSYM    DATA     BIT       TMR2CN0_TF2L
      00000098H.1 SFRSYM    DATA     BIT       SCON0_TI
      000000E8H.0 SFRSYM    DATA     BIT       ADC0CN0_ADCM0
      000000C6H   SFRSYM    DATA     BYTE      ADC0LTH
      00000088H.0 SFRSYM    DATA     BIT       TCON_IT0
      000000B0H.1 SFRSYM    DATA     BIT       CS0CN0_CSPME
      000000E8H.1 SFRSYM    DATA     BIT       ADC0CN0_ADCM1
      000000EFH   SFRSYM    DATA     BYTE      RSTSRC
      000000D7H   SFRSYM    DATA     BYTE      P0MAT
      00000086H   SFRSYM    DATA     BYTE      CRC0DAT
      00000088H.2 SFRSYM    DATA     BIT       TCON_IT1
      000000E8H.2 SFRSYM    DATA     BIT       ADC0CN0_ADCM2
      00000098H   SFRSYM    DATA     BYTE      SCON0
      000000CFH   SFRSYM    DATA     BYTE      P1MAT
      000000DEH   SFRSYM    DATA     BYTE      CS0PM
      000000E8H.3 SFRSYM    DATA     BIT       ADC0CN0_ADWINT
      000000E8H.4 SFRSYM    DATA     BIT       ADC0CN0_ADBUSY
      000000F5H   SFRSYM    DATA     BYTE      SMB0ADM
      000000C5H   SFRSYM    DATA     BYTE      ADC0LTL
      000000F8H.5 SFRSYM    DATA     BIT       SPI0CN0_MODF
      000000B8H.6 SFRSYM    DATA     BIT       IP_PSPI0
      000000B0H.6 SFRSYM    DATA     BIT       CS0CN0_CSEOS
      000000C8H   SFRSYM    DATA     BYTE      TMR2CN0
      00000091H   SFRSYM    DATA     BYTE      TMR3CN0
      000000F4H   SFRSYM    DATA     BYTE      SMB0ADR
      00000088H.4 SFRSYM    DATA     BIT       TCON_TR0
      000000B0H.5 SFRSYM    DATA     BIT       CS0CN0_CSINT
      000000ABH   SFRSYM    DATA     BYTE      CS0MX
      000000C8H.4 SFRSYM    DATA     BIT       TMR2CN0_TF2CEN
      00000088H.6 SFRSYM    DATA     BIT       TCON_TR1
      000000C2H   SFRSYM    DATA     BYTE      SMB0DAT
      00000099H   SFRSYM    DATA     BYTE      P0DRV
      000000DDH   SFRSYM    DATA     BYTE      CS0SS
      00000080H.0 SFRSYM    DATA     BIT       AUX
      000000CDH   SFRSYM    DATA     BYTE      TMR2H
      000000A1H   SFRSYM    DATA     BYTE      SPI0CFG
      0000009BH   SFRSYM    DATA     BYTE      P1DRV
      00000095H   SFRSYM    DATA     BYTE      TMR3H
      0000009DH   SFRSYM    DATA     BYTE      P2DRV
      0000009AH   SFRSYM    DATA     BYTE      CRC0CNT
      000000CCH   SFRSYM    DATA     BYTE      TMR2L
      000000ACH   SFRSYM    DATA     BYTE      RTC0ADR
      000000F8H.7 SFRSYM    DATA     BIT       SPI0CN0_SPIF
      00000094H   SFRSYM    DATA     BYTE      TMR3L
      000000BBH   SFRSYM    DATA     BYTE      ADC0PWR
      000000A8H.7 SFRSYM    DATA     BIT       IE_EA
      000000ADH   SFRSYM    DATA     BYTE      RTC0DAT
      000000B0H.3 SFRSYM    DATA     BIT       CS0CN0_CSCMPEN
      000000B6H   SFRSYM    DATA     BYTE      FLSCL
      000000C8H.5 SFRSYM    DATA     BIT       TMR2CN0_TF2LEN
      000000F8H.6 SFRSYM    DATA     BIT       SPI0CN0_WCOL
      000000F8H.2 SFRSYM    DATA     BIT       SPI0CN0_NSSMD0
      000000D0H.7 SFRSYM    DATA     BIT       PSW_CY
      000000A3H   SFRSYM    DATA     BYTE      SPI0DAT
LX51 LINKER/LOCATER V4.66.97.0                                                        02/10/2023  14:24:31  PAGE 42


      000000F8H.3 SFRSYM    DATA     BIT       SPI0CN0_NSSMD1
      000000BDH   SFRSYM    DATA     WORD      ADC0
      0000008EH   SFRSYM    DATA     BYTE      TOFFH
      000000D0H   SFRSYM    DATA     BYTE      PSW
      000000DFH   SFRSYM    DATA     BYTE      PCA0PWM
      000000E2H   SFRSYM    DATA     BYTE      REVID
      0000008DH   SFRSYM    DATA     BYTE      TOFFL
      000000B7H   SFRSYM    DATA     BYTE      FLKEY
      000000BAH   SFRSYM    DATA     BYTE      ADC0AC

      010009B9H   BLOCK     CODE     ---       LVL=0
      ---         BLOCKEND  ---      ---       LVL=0

      01000B8FH   BLOCK     CODE     ---       LVL=0
      01000B8FH   BLOCK     CODE     NEAR LAB  LVL=1
      00000007H   SYMBOL    DATA     BYTE      i
      ---         BLOCKEND  ---      ---       LVL=1
      01000B8FH   LINE      CODE     ---       #125
      01000B8FH   LINE      CODE     ---       #126
      01000B8FH   LINE      CODE     ---       #130
      01000B92H   LINE      CODE     ---       #133
      01000B97H   LINE      CODE     ---       #136
      01000B9BH   LINE      CODE     ---       #137
      01000B9EH   LINE      CODE     ---       #138
      01000BA5H   LINE      CODE     ---       #139
      01000BA9H   LINE      CODE     ---       #140
      01000BADH   LINE      CODE     ---       #141
      01000BAFH   LINE      CODE     ---       #144
      01000BB6H   LINE      CODE     ---       #145
      01000BC7H   LINE      CODE     ---       #146
      01000BCEH   LINE      CODE     ---       #147
      01000BDFH   LINE      CODE     ---       #148
      01000BE6H   LINE      CODE     ---       #149
      01000BFBH   LINE      CODE     ---       #150
      01000C02H   LINE      CODE     ---       #151
      01000C17H   LINE      CODE     ---       #154
      01000C23H   LINE      CODE     ---       #155
      01000C2AH   LINE      CODE     ---       #156
      01000C3CH   LINE      CODE     ---       #157
      01000C3FH   LINE      CODE     ---       #158
      01000C4BH   LINE      CODE     ---       #159
      01000C52H   LINE      CODE     ---       #160
      01000C64H   LINE      CODE     ---       #161
      01000C67H   LINE      CODE     ---       #164
      01000C6AH   LINE      CODE     ---       #167
      01000C6CH   LINE      CODE     ---       #170
      01000C6FH   LINE      CODE     ---       #171
      ---         BLOCKEND  ---      ---       LVL=0

      010017F1H   BLOCK     CODE     ---       LVL=0
      00000007H   SYMBOL    DATA     BYTE      index
      010017F1H   BLOCK     CODE     NEAR LAB  LVL=1
      0200002CH   SYMBOL    PDATA    WORD      t1
      ---         BLOCKEND  ---      ---       LVL=1
      010017F1H   LINE      CODE     ---       #175
      010017F1H   LINE      CODE     ---       #176
      010017F1H   LINE      CODE     ---       #181
      01001805H   LINE      CODE     ---       #182
      01001805H   LINE      CODE     ---       #183
      01001808H   LINE      CODE     ---       #184
      0100180AH   LINE      CODE     ---       #185
      0100180AH   LINE      CODE     ---       #186
LX51 LINKER/LOCATER V4.66.97.0                                                        02/10/2023  14:24:31  PAGE 43


      0100180CH   LINE      CODE     ---       #187
      0100180CH   LINE      CODE     ---       #188
      0100180FH   LINE      CODE     ---       #189
      01001811H   LINE      CODE     ---       #190
      01001811H   LINE      CODE     ---       #191
      01001813H   LINE      CODE     ---       #192
      01001813H   LINE      CODE     ---       #193
      01001816H   LINE      CODE     ---       #194
      01001818H   LINE      CODE     ---       #195
      01001818H   LINE      CODE     ---       #196
      0100181EH   LINE      CODE     ---       #197
      0100181EH   LINE      CODE     ---       #198
      01001821H   LINE      CODE     ---       #199
      01001823H   LINE      CODE     ---       #200
      01001823H   LINE      CODE     ---       #201
      01001829H   LINE      CODE     ---       #202
      01001829H   LINE      CODE     ---       #203
      0100182CH   LINE      CODE     ---       #204
      0100182EH   LINE      CODE     ---       #205
      0100182EH   LINE      CODE     ---       #206
      01001834H   LINE      CODE     ---       #207
      01001834H   LINE      CODE     ---       #208
      01001837H   LINE      CODE     ---       #209
      01001839H   LINE      CODE     ---       #210
      01001839H   LINE      CODE     ---       #211
      0100183FH   LINE      CODE     ---       #212
      0100183FH   LINE      CODE     ---       #213
      01001842H   LINE      CODE     ---       #214
      01001842H   LINE      CODE     ---       #215
      ---         BLOCKEND  ---      ---       LVL=0

      01001B50H   BLOCK     CODE     ---       LVL=0
      00000007H   SYMBOL    DATA     BYTE      index
      01001B50H   LINE      CODE     ---       #219
      01001B50H   LINE      CODE     ---       #220
      01001B50H   LINE      CODE     ---       #221
      01001B5BH   LINE      CODE     ---       #222
      01001B5BH   LINE      CODE     ---       #223
      01001B5FH   LINE      CODE     ---       #224
      01001B5FH   LINE      CODE     ---       #225
      01001B69H   LINE      CODE     ---       #226
      01001B69H   LINE      CODE     ---       #227
      01001B73H   LINE      CODE     ---       #228
      01001B73H   LINE      CODE     ---       #229
      01001B76H   LINE      CODE     ---       #230
      01001B76H   LINE      CODE     ---       #231
      ---         BLOCKEND  ---      ---       LVL=0

      01001624H   BLOCK     CODE     ---       LVL=0
      01001624H   LINE      CODE     ---       #239
      01001641H   LINE      CODE     ---       #242
      01001647H   LINE      CODE     ---       #243
      01001649H   LINE      CODE     ---       #244
      0100164CH   LINE      CODE     ---       #245
      0100164CH   LINE      CODE     ---       #248
      0100164EH   LINE      CODE     ---       #251
      01001651H   LINE      CODE     ---       #252
      01001659H   LINE      CODE     ---       #253
      0100165BH   LINE      CODE     ---       #254
      0100165BH   LINE      CODE     ---       #255
      0100165DH   LINE      CODE     ---       #256
      01001665H   LINE      CODE     ---       #257
LX51 LINKER/LOCATER V4.66.97.0                                                        02/10/2023  14:24:31  PAGE 44


      01001667H   LINE      CODE     ---       #258
      01001667H   LINE      CODE     ---       #259
      01001667H   LINE      CODE     ---       #260
      0100166CH   LINE      CODE     ---       #263
      ---         BLOCKEND  ---      ---       LVL=0

      01000C70H   BLOCK     CODE     ---       LVL=0
      01000C70H   LINE      CODE     ---       #267
      01000C8DH   LINE      CODE     ---       #270
      01000C99H   LINE      CODE     ---       #271
      01000CA2H   LINE      CODE     ---       #272
      01000CA4H   LINE      CODE     ---       #274
      01000CAFH   LINE      CODE     ---       #275
      01000CAFH   LINE      CODE     ---       #278
      01000CBBH   LINE      CODE     ---       #280
      01000CC0H   LINE      CODE     ---       #281
      01000CC2H   LINE      CODE     ---       #283
      01000CCFH   LINE      CODE     ---       #284
      01000CD1H   LINE      CODE     ---       #285
      01000CD1H   LINE      CODE     ---       #286
      01000CE0H   LINE      CODE     ---       #288
      01000CE7H   LINE      CODE     ---       #289
      01000CECH   LINE      CODE     ---       #292
      01000CF5H   LINE      CODE     ---       #293
      01000CF7H   LINE      CODE     ---       #294
      01000CFAH   LINE      CODE     ---       #295
      01000CFCH   LINE      CODE     ---       #296
      01000CFEH   LINE      CODE     ---       #297
      01000D02H   LINE      CODE     ---       #298
      01000D02H   LINE      CODE     ---       #299
      01000D02H   LINE      CODE     ---       #300
      01000D02H   LINE      CODE     ---       #303
      01000D15H   LINE      CODE     ---       #304
      01000D15H   LINE      CODE     ---       #305
      01000D18H   LINE      CODE     ---       #306
      01000D1AH   LINE      CODE     ---       #307
      01000D1AH   LINE      CODE     ---       #308
      01000D1DH   LINE      CODE     ---       #309
      01000D1FH   LINE      CODE     ---       #310
      01000D1FH   LINE      CODE     ---       #311
      01000D22H   LINE      CODE     ---       #312
      01000D24H   LINE      CODE     ---       #313
      01000D24H   LINE      CODE     ---       #314
      01000D27H   LINE      CODE     ---       #315
      01000D29H   LINE      CODE     ---       #316
      01000D29H   LINE      CODE     ---       #317
      01000D2CH   LINE      CODE     ---       #318
      01000D2EH   LINE      CODE     ---       #319
      01000D2EH   LINE      CODE     ---       #320
      01000D31H   LINE      CODE     ---       #321
      01000D31H   LINE      CODE     ---       #324
      01000D33H   LINE      CODE     ---       #325
      ---         BLOCKEND  ---      ---       LVL=0

      01001A17H   BLOCK     CODE     ---       LVL=0
      02000028H   SYMBOL    PDATA    BYTE      mSec
      01001A1BH   BLOCK     CODE     NEAR LAB  LVL=1
      00000007H   SYMBOL    DATA     BYTE      i
      ---         BLOCKEND  ---      ---       LVL=1
      01001A17H   LINE      CODE     ---       #334
      01001A1BH   LINE      CODE     ---       #335
      01001A1BH   LINE      CODE     ---       #339
LX51 LINKER/LOCATER V4.66.97.0                                                        02/10/2023  14:24:31  PAGE 45


      01001A1DH   LINE      CODE     ---       #340
      01001A20H   LINE      CODE     ---       #341
      01001A22H   LINE      CODE     ---       #342
      01001A2BH   LINE      CODE     ---       #343
      01001A37H   LINE      CODE     ---       #345
      01001A3AH   LINE      CODE     ---       #348
      01001A3CH   LINE      CODE     ---       #349
      01001A3FH   LINE      CODE     ---       #350
      01001A42H   LINE      CODE     ---       #351
      01001A44H   LINE      CODE     ---       #354
      01001A46H   LINE      CODE     ---       #355
      01001A48H   LINE      CODE     ---       #356
      ---         BLOCKEND  ---      ---       LVL=0

      01001DB7H   BLOCK     CODE     ---       LVL=0
      00000007H   SYMBOL    DATA     BYTE      adcChannel
      01001DB7H   LINE      CODE     ---       #360
      01001DB7H   LINE      CODE     ---       #361
      01001DB7H   LINE      CODE     ---       #363
      01001DB9H   LINE      CODE     ---       #366
      01001DBEH   LINE      CODE     ---       #369
      01001DC0H   LINE      CODE     ---       #370
      01001DC2H   LINE      CODE     ---       #373
      01001DC5H   LINE      CODE     ---       #374
      01001DC7H   LINE      CODE     ---       #376
      01001DCBH   LINE      CODE     ---       #377
      ---         BLOCKEND  ---      ---       LVL=0

      010012A0H   BLOCK     CODE     ---       LVL=0
      0200003CH   SYMBOL    PDATA    WORD      val
      0200003EH   SYMBOL    PDATA    BYTE      index
      010012A0H   LINE      CODE     ---       #380
      010012AAH   LINE      CODE     ---       #381
      010012AAH   LINE      CODE     ---       #383
      010012ADH   LINE      CODE     ---       #385
      010012D6H   LINE      CODE     ---       #388
      010012DBH   LINE      CODE     ---       #389
      010012DDH   LINE      CODE     ---       #391
      01001308H   LINE      CODE     ---       #394
      0100131BH   LINE      CODE     ---       #395
      0100131BH   LINE      CODE     ---       #396
      ---         BLOCKEND  ---      ---       LVL=0

      01000FEFH   BLOCK     CODE     ---       LVL=0
      00000006H   SYMBOL    DATA     WORD      val
      00000005H   SYMBOL    DATA     BYTE      Tindex
      01000FEFH   BLOCK     CODE     NEAR LAB  LVL=1
      00000007H   SYMBOL    DATA     BYTE      i
      0200003CH   SYMBOL    PDATA    WORD      tempAvgAdcVal
      ---         BLOCKEND  ---      ---       LVL=1
      01000FEFH   LINE      CODE     ---       #399
      01000FEFH   LINE      CODE     ---       #400
      01000FEFH   LINE      CODE     ---       #402
      01000FF5H   LINE      CODE     ---       #405
      0100100CH   LINE      CODE     ---       #406
      01001011H   LINE      CODE     ---       #408
      0100101AH   LINE      CODE     ---       #409
      0100101AH   LINE      CODE     ---       #412
      01001020H   LINE      CODE     ---       #413
      01001026H   LINE      CODE     ---       #414
      01001040H   LINE      CODE     ---       #415
      01001043H   LINE      CODE     ---       #418
LX51 LINKER/LOCATER V4.66.97.0                                                        02/10/2023  14:24:31  PAGE 46


      01001049H   LINE      CODE     ---       #420
      01001052H   LINE      CODE     ---       #421
      01001052H   LINE      CODE     ---       #422
      01001067H   LINE      CODE     ---       #424
      0100106CH   LINE      CODE     ---       #425
      01001072H   LINE      CODE     ---       #426
      01001074H   LINE      CODE     ---       #427
      0100107EH   LINE      CODE     ---       #428
      0100107EH   LINE      CODE     ---       #429
      ---         BLOCKEND  ---      ---       LVL=0

      01001CD7H   BLOCK     CODE     ---       LVL=0
      00000006H   SYMBOL    DATA     WORD      adcVal
      01001CD7H   BLOCK     CODE     NEAR LAB  LVL=1
      0200002EH   SYMBOL    PDATA    DWORD     t
      ---         BLOCKEND  ---      ---       LVL=1
      01001CD7H   LINE      CODE     ---       #435
      01001CD7H   LINE      CODE     ---       #436
      01001CD7H   LINE      CODE     ---       #437
      01001CE2H   LINE      CODE     ---       #438
      01001CEFH   LINE      CODE     ---       #439
      01001CF5H   LINE      CODE     ---       #440
      ---         BLOCKEND  ---      ---       LVL=0

      01001CF6H   BLOCK     CODE     ---       LVL=0
      00000006H   SYMBOL    DATA     WORD      adcVal
      01001CF6H   BLOCK     CODE     NEAR LAB  LVL=1
      02000038H   SYMBOL    PDATA    DWORD     t
      ---         BLOCKEND  ---      ---       LVL=1
      01001CF6H   LINE      CODE     ---       #446
      01001CF6H   LINE      CODE     ---       #447
      01001CF6H   LINE      CODE     ---       #448
      01001D01H   LINE      CODE     ---       #449
      01001D0EH   LINE      CODE     ---       #450
      01001D14H   LINE      CODE     ---       #451
      ---         BLOCKEND  ---      ---       LVL=0

      01001C0BH   BLOCK     CODE     ---       LVL=0
      00000006H   SYMBOL    DATA     WORD      adcVal
      01001C0BH   BLOCK     CODE     NEAR LAB  LVL=1
      0200002EH   SYMBOL    PDATA    DWORD     t
      ---         BLOCKEND  ---      ---       LVL=1
      01001C0BH   LINE      CODE     ---       #457
      01001C0BH   LINE      CODE     ---       #458
      01001C0BH   LINE      CODE     ---       #459
      01001C16H   LINE      CODE     ---       #460
      01001C27H   LINE      CODE     ---       #461
      01001C2DH   LINE      CODE     ---       #462
      ---         BLOCKEND  ---      ---       LVL=0

      01001B77H   BLOCK     CODE     ---       LVL=0
      00000006H   SYMBOL    DATA     WORD      adcVal
      01001B77H   BLOCK     CODE     NEAR LAB  LVL=1
      02000038H   SYMBOL    PDATA    DWORD     t
      ---         BLOCKEND  ---      ---       LVL=1
      01001B77H   LINE      CODE     ---       #468
      01001B77H   LINE      CODE     ---       #469
      01001B77H   LINE      CODE     ---       #470
      01001B82H   LINE      CODE     ---       #471
      01001B96H   LINE      CODE     ---       #472
      01001B9CH   LINE      CODE     ---       #473
      ---         BLOCKEND  ---      ---       LVL=0
LX51 LINKER/LOCATER V4.66.97.0                                                        02/10/2023  14:24:31  PAGE 47



      01000EB8H   BLOCK     CODE     ---       LVL=0
      0200002EH   SYMBOL    PDATA    WORD      adcVal
      01000EBAH   BLOCK     CODE     NEAR LAB  LVL=1
      02000030H   SYMBOL    PDATA    LONG      t
      ---         BLOCKEND  ---      ---       LVL=1
      01000EB8H   LINE      CODE     ---       #483
      01000EBAH   LINE      CODE     ---       #484
      01000EBAH   LINE      CODE     ---       #492
      01000ECDH   LINE      CODE     ---       #493
      01000ED5H   LINE      CODE     ---       #494
      01000F2CH   LINE      CODE     ---       #498
      01000F38H   LINE      CODE     ---       #499
      01000F40H   LINE      CODE     ---       #500
      01000F53H   LINE      CODE     ---       #502
      01000F59H   LINE      CODE     ---       #503
      ---         BLOCKEND  ---      ---       LVL=0

      01001843H   BLOCK     CODE     ---       LVL=0
      0200002EH   SYMBOL    PDATA    WORD      adcVal
      01001845H   BLOCK     CODE     NEAR LAB  LVL=1
      02000030H   SYMBOL    PDATA    LONG      t
      ---         BLOCKEND  ---      ---       LVL=1
      01001843H   LINE      CODE     ---       #511
      01001845H   LINE      CODE     ---       #512
      01001845H   LINE      CODE     ---       #516
      01001858H   LINE      CODE     ---       #517
      01001865H   LINE      CODE     ---       #521
      0100187AH   LINE      CODE     ---       #522
      0100188EH   LINE      CODE     ---       #524
      01001894H   LINE      CODE     ---       #525
      ---         BLOCKEND  ---      ---       LVL=0

      ---         MODULE    ---      ---       ADC_REF_CONST
      01001FFCH   SYMBOL    CODE     BYTE      ADC_REF_VAL_HIGH
      01001FFDH   SYMBOL    CODE     BYTE      ADC_REF_VAL_LOW

      ---         MODULE    ---      ---       BUCK
      0000000CH   PUBLIC    IDATA    WORD      buckCurVal
      00000021H.2 PUBLIC    BIT      BIT       buckLimitEnable
      00000021H.1 PUBLIC    BIT      BIT       buckEnable
      00000021H.0 PUBLIC    BIT      BIT       buckLimit2
      00000020H.7 PUBLIC    BIT      BIT       buckLimit1
      0000000AH   PUBLIC    IDATA    WORD      buckBattRegMv
      00000008H   PUBLIC    IDATA    WORD      buckSolarRegMv
      01001FC6H   PUBLIC    CONST    ---       buckEffValues
      01001F9AH   PUBLIC    CONST    ---       buckEffPowerPoints
      01001B9DH   PUBLIC    CODE     ---       _BUCK_UpdatePwmOutput
      01001AA9H   PUBLIC    CODE     ---       _BUCK_GetEfficiency
      01000AAAH   PUBLIC    CODE     ---       BUCK_Update
      00000021H.5 PUBLIC    BIT      BIT       ?BUCK_EnableBatteryLimit?BIT
      01001F82H   PUBLIC    CODE     ---       BUCK_EnableBatteryLimit
      00000021H.5 PUBLIC    BIT      BIT       ?BUCK_EnableRegulate?BIT
      01001551H   PUBLIC    CODE     ---       BUCK_EnableRegulate
      01001EDEH   PUBLIC    CODE     ---       _BUCK_SetBattVoltage
      01001ED2H   PUBLIC    CODE     ---       _BUCK_SetSolarVoltage
      01001D34H   PUBLIC    CODE     ---       BUCK_Init
      000000A2H   SFRSYM    DATA     BYTE      SPI0CKR
      00000080H   SFRSYM    DATA     BYTE      P0
      000000D0H.2 SFRSYM    DATA     BIT       PSW_OV
      000000B1H   SFRSYM    DATA     BYTE      XOSC0CN
      00000090H   SFRSYM    DATA     BYTE      P1
LX51 LINKER/LOCATER V4.66.97.0                                                        02/10/2023  14:24:31  PAGE 48


      000000A0H   SFRSYM    DATA     BYTE      P2
      00000097H   SFRSYM    DATA     BYTE      ADC0CF
      000000C0H.7 SFRSYM    DATA     BIT       SMB0CN0_MASTER
      000000F9H   SFRSYM    DATA     WORD      PCA0
      000000AEH   SFRSYM    DATA     BYTE      RTC0KEY
      000000E6H   SFRSYM    DATA     BYTE      EIE1
      000000C0H.1 SFRSYM    DATA     BIT       SMB0CN0_ACK
      000000E7H   SFRSYM    DATA     BYTE      EIE2
      0000008FH   SFRSYM    DATA     BYTE      PSCTL
      000000E4H   SFRSYM    DATA     BYTE      IT01CF
      000000B0H   SFRSYM    DATA     BYTE      CS0CN0
      000000C0H.6 SFRSYM    DATA     BIT       SMB0CN0_TXMODE
      000000E3H   SFRSYM    DATA     BYTE      DERIVID
      000000AFH   SFRSYM    DATA     BYTE      CS0MD1
      000000A7H   SFRSYM    DATA     BYTE      SFRPAGE
      000000F3H   SFRSYM    DATA     BYTE      CS0MD2
      000000A4H   SFRSYM    DATA     BYTE      P0MDOUT
      000000F3H   SFRSYM    DATA     BYTE      CS0MD3
      000000A5H   SFRSYM    DATA     BYTE      P1MDOUT
      000000E8H.5 SFRSYM    DATA     BIT       ADC0CN0_ADINT
      000000CBH   SFRSYM    DATA     BYTE      TMR2RLH
      000000A6H   SFRSYM    DATA     BYTE      P2MDOUT
      000000A8H   SFRSYM    DATA     BYTE      IE
      00000093H   SFRSYM    DATA     BYTE      TMR3RLH
      000000F6H   SFRSYM    DATA     BYTE      EIP1
      000000F7H   SFRSYM    DATA     BYTE      EIP2
      00000098H.2 SFRSYM    DATA     BIT       SCON0_RB8
      000000CAH   SFRSYM    DATA     BYTE      TMR2RLL
      000000FCH   SFRSYM    DATA     BYTE      PCA0CPH0
      00000092H   SFRSYM    DATA     BYTE      TMR3RLL
      000000EAH   SFRSYM    DATA     BYTE      PCA0CPH1
      00000098H.3 SFRSYM    DATA     BIT       SCON0_TB8
      000000B0H.7 SFRSYM    DATA     BIT       CS0CN0_CSEN
      000000F0H.0 SFRSYM    DATA     BIT       B_B0
      00000082H   SFRSYM    DATA     WORD      DP
      000000ECH   SFRSYM    DATA     BYTE      PCA0CPH2
      000000F0H.1 SFRSYM    DATA     BIT       B_B1
      000000C3H   SFRSYM    DATA     WORD      ADC0GT
      000000F0H.2 SFRSYM    DATA     BIT       B_B2
      000000FBH   SFRSYM    DATA     BYTE      PCA0CPL0
      000000F0H.3 SFRSYM    DATA     BIT       B_B3
      000000D9H   SFRSYM    DATA     BYTE      PCA0MD
      000000DAH   SFRSYM    DATA     BYTE      PCA0CPM0
      000000E9H   SFRSYM    DATA     BYTE      PCA0CPL1
      000000F0H.4 SFRSYM    DATA     BIT       B_B4
      000000DBH   SFRSYM    DATA     BYTE      PCA0CPM1
      000000EBH   SFRSYM    DATA     BYTE      PCA0CPL2
      000000F0H.5 SFRSYM    DATA     BIT       B_B5
      000000DCH   SFRSYM    DATA     BYTE      PCA0CPM2
      000000B8H   SFRSYM    DATA     BYTE      IP
      000000BCH   SFRSYM    DATA     BYTE      ADC0TK
      000000F0H.6 SFRSYM    DATA     BIT       B_B6
      000000C5H   SFRSYM    DATA     WORD      ADC0LT
      000000D6H   SFRSYM    DATA     BYTE      IREF0CN0
      00000098H.5 SFRSYM    DATA     BIT       SCON0_MCE
      000000F0H.7 SFRSYM    DATA     BIT       B_B7
      000000E1H   SFRSYM    DATA     BYTE      XBR0
      000000C1H   SFRSYM    DATA     BYTE      SMB0CF
      000000E2H   SFRSYM    DATA     BYTE      XBR1
      000000D2H   SFRSYM    DATA     BYTE      CS0SCAN0
      000000C0H.5 SFRSYM    DATA     BIT       SMB0CN0_STA
      000000E3H   SFRSYM    DATA     BYTE      XBR2
LX51 LINKER/LOCATER V4.66.97.0                                                        02/10/2023  14:24:31  PAGE 49


      000000D3H   SFRSYM    DATA     BYTE      CS0SCAN1
      00000096H   SFRSYM    DATA     BYTE      ADC0MX
      000000E0H.0 SFRSYM    DATA     BIT       ACC_ACC0
      000000D1H   SFRSYM    DATA     BYTE      REF0CN
      000000B2H   SFRSYM    DATA     BYTE      HFO0CN
      0000008EH   SFRSYM    DATA     BYTE      CKCON0
      000000E0H.1 SFRSYM    DATA     BIT       ACC_ACC1
      000000C9H   SFRSYM    DATA     BYTE      REG0CN
      00000085H   SFRSYM    DATA     BYTE      CRC0IN
      000000C8H.2 SFRSYM    DATA     BIT       TMR2CN0_TR2
      000000E0H.2 SFRSYM    DATA     BIT       ACC_ACC2
      000000E0H.3 SFRSYM    DATA     BIT       ACC_ACC3
      00000081H   SFRSYM    DATA     BYTE      SP
      0000009DH   SFRSYM    DATA     BYTE      CMP0MD
      000000E0H.4 SFRSYM    DATA     BIT       ACC_ACC4
      000000D8H.0 SFRSYM    DATA     BIT       PCA0CN0_CCF0
      000000E0H.5 SFRSYM    DATA     BIT       ACC_ACC5
      000000D8H.1 SFRSYM    DATA     BIT       PCA0CN0_CCF1
      000000E0H.6 SFRSYM    DATA     BIT       ACC_ACC6
      000000CCH   SFRSYM    DATA     WORD      TMR2
      000000D8H.2 SFRSYM    DATA     BIT       PCA0CN0_CCF2
      000000E0H.7 SFRSYM    DATA     BIT       ACC_ACC7
      00000094H   SFRSYM    DATA     WORD      TMR3
      000000B0H.0 SFRSYM    DATA     BIT       CS0CN0_CSCMPF
      000000C0H.3 SFRSYM    DATA     BIT       SMB0CN0_ACKRQ
      000000FFH   SFRSYM    DATA     BYTE      VDM0CN
      000000F1H   SFRSYM    DATA     BYTE      P0MDIN
      00000098H.4 SFRSYM    DATA     BIT       SCON0_REN
      000000F2H   SFRSYM    DATA     BYTE      P1MDIN
      000000FEH   SFRSYM    DATA     BYTE      CS0THH
      000000C0H.4 SFRSYM    DATA     BIT       SMB0CN0_STO
      000000B5H   SFRSYM    DATA     BYTE      PMU0CF
      000000C7H   SFRSYM    DATA     BYTE      P0MASK
      000000BFH   SFRSYM    DATA     BYTE      P1MASK
      000000FDH   SFRSYM    DATA     BYTE      CS0THL
      000000D0H.3 SFRSYM    DATA     BIT       PSW_RS0
      000000D8H.7 SFRSYM    DATA     BIT       PCA0CN0_CF
      000000F8H.4 SFRSYM    DATA     BIT       SPI0CN0_RXOVRN
      000000D0H.4 SFRSYM    DATA     BIT       PSW_RS1
      000000C8H.0 SFRSYM    DATA     BIT       TMR2CN0_T2XCLK0
      000000C8H.1 SFRSYM    DATA     BIT       TMR2CN0_T2XCLK1
      000000E8H.7 SFRSYM    DATA     BIT       ADC0CN0_ADEN
      00000089H   SFRSYM    DATA     BYTE      TMOD
      00000088H   SFRSYM    DATA     BYTE      TCON
      000000B5H   SFRSYM    DATA     BYTE      PMU0MD
      000000CEH   SFRSYM    DATA     BYTE      PMU0FL
      0000009CH   SFRSYM    DATA     BYTE      CRC0FLIP
      000000D0H.0 SFRSYM    DATA     BIT       PSW_PARITY
      000000A8H.4 SFRSYM    DATA     BIT       IE_ES0
      0000009FH   SFRSYM    DATA     BYTE      CMP0MX
      000000A8H.1 SFRSYM    DATA     BIT       IE_ET0
      000000A8H.3 SFRSYM    DATA     BIT       IE_ET1
      000000D4H   SFRSYM    DATA     BYTE      P0SKIP
      000000A8H.5 SFRSYM    DATA     BIT       IE_ET2
      000000D5H   SFRSYM    DATA     BYTE      P1SKIP
      000000E8H   SFRSYM    DATA     BYTE      ADC0CN0
      000000A8H.0 SFRSYM    DATA     BIT       IE_EX0
      000000D8H.6 SFRSYM    DATA     BIT       PCA0CN0_CR
      000000A8H.2 SFRSYM    DATA     BIT       IE_EX1
      00000098H.7 SFRSYM    DATA     BIT       SCON0_SMODE
      000000A9H   SFRSYM    DATA     BYTE      CLKSEL
      000000F8H.0 SFRSYM    DATA     BIT       SPI0CN0_SPIEN
LX51 LINKER/LOCATER V4.66.97.0                                                        02/10/2023  14:24:31  PAGE 50


      000000F0H   SFRSYM    DATA     BYTE      B
      000000BEH   SFRSYM    DATA     BYTE      ADC0H
      0000009EH   SFRSYM    DATA     BYTE      CRC0AUTO
      000000B0H.4 SFRSYM    DATA     BIT       CS0CN0_CSBUSY
      000000E8H.6 SFRSYM    DATA     BIT       ADC0CN0_ADBMEN
      000000CAH   SFRSYM    DATA     WORD      TMR2RL
      000000BDH   SFRSYM    DATA     BYTE      ADC0L
      00000092H   SFRSYM    DATA     WORD      TMR3RL
      000000D8H   SFRSYM    DATA     BYTE      PCA0CN0
      000000E0H   SFRSYM    DATA     BYTE      ACC
      000000FBH   SFRSYM    DATA     WORD      PCA0CP0
      000000E9H   SFRSYM    DATA     WORD      PCA0CP1
      000000EBH   SFRSYM    DATA     WORD      PCA0CP2
      00000084H   SFRSYM    DATA     BYTE      CRC0CN0
      0000008CH   SFRSYM    DATA     BYTE      TH0
      000000B8H.4 SFRSYM    DATA     BIT       IP_PS0
      0000008DH   SFRSYM    DATA     BYTE      TH1
      000000FAH   SFRSYM    DATA     BYTE      PCA0H
      000000B8H.1 SFRSYM    DATA     BIT       IP_PT0
      000000B8H.3 SFRSYM    DATA     BIT       IP_PT1
      000000C0H.2 SFRSYM    DATA     BIT       SMB0CN0_ARBLOST
      000000B8H.5 SFRSYM    DATA     BIT       IP_PT2
      0000008AH   SFRSYM    DATA     BYTE      TL0
      000000AAH   SFRSYM    DATA     BYTE      CS0CF
      000000F8H.1 SFRSYM    DATA     BIT       SPI0CN0_TXBMT
      000000D0H.5 SFRSYM    DATA     BIT       PSW_F0
      000000A8H.6 SFRSYM    DATA     BIT       IE_ESPI0
      0000008BH   SFRSYM    DATA     BYTE      TL1
      000000F9H   SFRSYM    DATA     BYTE      PCA0L
      000000C0H.0 SFRSYM    DATA     BIT       SMB0CN0_SI
      000000D0H.1 SFRSYM    DATA     BIT       PSW_F1
      00000080H.0 SFRSYM    DATA     BIT       P0_B0
      000000B8H.0 SFRSYM    DATA     BIT       IP_PX0
      00000090H.0 SFRSYM    DATA     BIT       P1_B0
      00000080H.1 SFRSYM    DATA     BIT       P0_B1
      000000B8H.2 SFRSYM    DATA     BIT       IP_PX1
      000000EEH   SFRSYM    DATA     BYTE      CS0DH
      0000009BH   SFRSYM    DATA     BYTE      CMP0CN0
      00000088H.1 SFRSYM    DATA     BIT       TCON_IE0
      00000090H.1 SFRSYM    DATA     BIT       P1_B1
      00000080H.2 SFRSYM    DATA     BIT       P0_B2
      00000088H.3 SFRSYM    DATA     BIT       TCON_IE1
      00000090H.2 SFRSYM    DATA     BIT       P1_B2
      00000080H.3 SFRSYM    DATA     BIT       P0_B3
      000000C0H   SFRSYM    DATA     BYTE      SMB0CN0
      00000090H.3 SFRSYM    DATA     BIT       P1_B3
      00000080H.4 SFRSYM    DATA     BIT       P0_B4
      00000090H.4 SFRSYM    DATA     BIT       P1_B4
      00000080H.5 SFRSYM    DATA     BIT       P0_B5
      000000EDH   SFRSYM    DATA     BYTE      CS0DL
      00000090H.5 SFRSYM    DATA     BIT       P1_B5
      00000080H.6 SFRSYM    DATA     BIT       P0_B6
      00000090H.6 SFRSYM    DATA     BIT       P1_B6
      00000080H.7 SFRSYM    DATA     BIT       P0_B7
      00000090H.7 SFRSYM    DATA     BIT       P1_B7
      000000A0H.7 SFRSYM    DATA     BIT       P2_B7
      00000083H   SFRSYM    DATA     BYTE      DPH
      000000C4H   SFRSYM    DATA     BYTE      ADC0GTH
      000000C8H.7 SFRSYM    DATA     BIT       TMR2CN0_TF2H
      000000C8H.3 SFRSYM    DATA     BIT       TMR2CN0_T2SPLIT
      000000D0H.6 SFRSYM    DATA     BIT       PSW_AC
      000000F8H   SFRSYM    DATA     BYTE      SPI0CN0
LX51 LINKER/LOCATER V4.66.97.0                                                        02/10/2023  14:24:31  PAGE 51


      000000B3H   SFRSYM    DATA     BYTE      HFO0CAL
      000000DEH   SFRSYM    DATA     BYTE      CS0SE
      00000088H.5 SFRSYM    DATA     BIT       TCON_TF0
      00000098H.0 SFRSYM    DATA     BIT       SCON0_RI
      00000082H   SFRSYM    DATA     BYTE      DPL
      00000088H.7 SFRSYM    DATA     BIT       TCON_TF1
      00000099H   SFRSYM    DATA     BYTE      SBUF0
      00000087H   SFRSYM    DATA     BYTE      PCON0
      000000B9H   SFRSYM    DATA     BYTE      IREF0CF
      000000C3H   SFRSYM    DATA     BYTE      ADC0GTL
      000000C8H.6 SFRSYM    DATA     BIT       TMR2CN0_TF2L
      00000098H.1 SFRSYM    DATA     BIT       SCON0_TI
      000000E8H.0 SFRSYM    DATA     BIT       ADC0CN0_ADCM0
      000000C6H   SFRSYM    DATA     BYTE      ADC0LTH
      00000088H.0 SFRSYM    DATA     BIT       TCON_IT0
      000000B0H.1 SFRSYM    DATA     BIT       CS0CN0_CSPME
      000000E8H.1 SFRSYM    DATA     BIT       ADC0CN0_ADCM1
      000000EFH   SFRSYM    DATA     BYTE      RSTSRC
      000000D7H   SFRSYM    DATA     BYTE      P0MAT
      00000086H   SFRSYM    DATA     BYTE      CRC0DAT
      00000088H.2 SFRSYM    DATA     BIT       TCON_IT1
      000000E8H.2 SFRSYM    DATA     BIT       ADC0CN0_ADCM2
      00000098H   SFRSYM    DATA     BYTE      SCON0
      000000CFH   SFRSYM    DATA     BYTE      P1MAT
      000000DEH   SFRSYM    DATA     BYTE      CS0PM
      000000E8H.3 SFRSYM    DATA     BIT       ADC0CN0_ADWINT
      000000E8H.4 SFRSYM    DATA     BIT       ADC0CN0_ADBUSY
      000000F5H   SFRSYM    DATA     BYTE      SMB0ADM
      000000C5H   SFRSYM    DATA     BYTE      ADC0LTL
      000000F8H.5 SFRSYM    DATA     BIT       SPI0CN0_MODF
      000000B8H.6 SFRSYM    DATA     BIT       IP_PSPI0
      000000B0H.6 SFRSYM    DATA     BIT       CS0CN0_CSEOS
      000000C8H   SFRSYM    DATA     BYTE      TMR2CN0
      00000091H   SFRSYM    DATA     BYTE      TMR3CN0
      000000F4H   SFRSYM    DATA     BYTE      SMB0ADR
      00000088H.4 SFRSYM    DATA     BIT       TCON_TR0
      000000B0H.5 SFRSYM    DATA     BIT       CS0CN0_CSINT
      000000ABH   SFRSYM    DATA     BYTE      CS0MX
      000000C8H.4 SFRSYM    DATA     BIT       TMR2CN0_TF2CEN
      00000088H.6 SFRSYM    DATA     BIT       TCON_TR1
      000000C2H   SFRSYM    DATA     BYTE      SMB0DAT
      00000099H   SFRSYM    DATA     BYTE      P0DRV
      000000DDH   SFRSYM    DATA     BYTE      CS0SS
      00000080H.0 SFRSYM    DATA     BIT       AUX
      000000CDH   SFRSYM    DATA     BYTE      TMR2H
      000000A1H   SFRSYM    DATA     BYTE      SPI0CFG
      0000009BH   SFRSYM    DATA     BYTE      P1DRV
      00000095H   SFRSYM    DATA     BYTE      TMR3H
      0000009DH   SFRSYM    DATA     BYTE      P2DRV
      0000009AH   SFRSYM    DATA     BYTE      CRC0CNT
      000000CCH   SFRSYM    DATA     BYTE      TMR2L
      000000ACH   SFRSYM    DATA     BYTE      RTC0ADR
      000000F8H.7 SFRSYM    DATA     BIT       SPI0CN0_SPIF
      00000094H   SFRSYM    DATA     BYTE      TMR3L
      000000BBH   SFRSYM    DATA     BYTE      ADC0PWR
      000000A8H.7 SFRSYM    DATA     BIT       IE_EA
      000000ADH   SFRSYM    DATA     BYTE      RTC0DAT
      000000B0H.3 SFRSYM    DATA     BIT       CS0CN0_CSCMPEN
      000000B6H   SFRSYM    DATA     BYTE      FLSCL
      000000C8H.5 SFRSYM    DATA     BIT       TMR2CN0_TF2LEN
      000000F8H.6 SFRSYM    DATA     BIT       SPI0CN0_WCOL
      000000F8H.2 SFRSYM    DATA     BIT       SPI0CN0_NSSMD0
LX51 LINKER/LOCATER V4.66.97.0                                                        02/10/2023  14:24:31  PAGE 52


      000000D0H.7 SFRSYM    DATA     BIT       PSW_CY
      000000A3H   SFRSYM    DATA     BYTE      SPI0DAT
      000000F8H.3 SFRSYM    DATA     BIT       SPI0CN0_NSSMD1
      000000BDH   SFRSYM    DATA     WORD      ADC0
      0000008EH   SFRSYM    DATA     BYTE      TOFFH
      000000D0H   SFRSYM    DATA     BYTE      PSW
      000000DFH   SFRSYM    DATA     BYTE      PCA0PWM
      000000E2H   SFRSYM    DATA     BYTE      REVID
      0000008DH   SFRSYM    DATA     BYTE      TOFFL
      000000B7H   SFRSYM    DATA     BYTE      FLKEY
      000000BAH   SFRSYM    DATA     BYTE      ADC0AC

      01001DCCH   BLOCK     CODE     ---       LVL=0
      ---         BLOCKEND  ---      ---       LVL=0

      01001D34H   BLOCK     CODE     ---       LVL=0
      01001D34H   LINE      CODE     ---       #70
      01001D34H   LINE      CODE     ---       #71
      01001D34H   LINE      CODE     ---       #72
      01001D36H   LINE      CODE     ---       #73
      01001D38H   LINE      CODE     ---       #74
      01001D38H   LINE      CODE     ---       #75
      01001D38H   LINE      CODE     ---       #76
      01001D3BH   LINE      CODE     ---       #77
      01001D45H   LINE      CODE     ---       #78
      01001D4CH   LINE      CODE     ---       #79
      ---         BLOCKEND  ---      ---       LVL=0

      01001ED2H   BLOCK     CODE     ---       LVL=0
      00000006H   SYMBOL    DATA     WORD      v
      01001ED2H   LINE      CODE     ---       #83
      01001ED2H   LINE      CODE     ---       #84
      01001ED2H   LINE      CODE     ---       #86
      01001ED4H   LINE      CODE     ---       #87
      01001EDBH   LINE      CODE     ---       #88
      01001EDDH   LINE      CODE     ---       #89
      ---         BLOCKEND  ---      ---       LVL=0

      01001EDEH   BLOCK     CODE     ---       LVL=0
      00000006H   SYMBOL    DATA     WORD      v
      01001EDEH   LINE      CODE     ---       #92
      01001EDEH   LINE      CODE     ---       #93
      01001EDEH   LINE      CODE     ---       #95
      01001EE0H   LINE      CODE     ---       #96
      01001EE7H   LINE      CODE     ---       #97
      01001EE9H   LINE      CODE     ---       #98
      ---         BLOCKEND  ---      ---       LVL=0

      01001551H   BLOCK     CODE     ---       LVL=0
      00000021H.5 SYMBOL    BIT      BIT       en
      01001551H   BLOCK     CODE     NEAR LAB  LVL=1
      02000028H   SYMBOL    PDATA    DWORD     t
      ---         BLOCKEND  ---      ---       LVL=1
      01001551H   LINE      CODE     ---       #101
      01001551H   LINE      CODE     ---       #102
      01001551H   LINE      CODE     ---       #105
      01001554H   LINE      CODE     ---       #106
      01001557H   LINE      CODE     ---       #109
      0100156AH   LINE      CODE     ---       #110
      01001595H   LINE      CODE     ---       #111
      0100159FH   LINE      CODE     ---       #112
      010015A4H   LINE      CODE     ---       #113
LX51 LINKER/LOCATER V4.66.97.0                                                        02/10/2023  14:24:31  PAGE 53


      010015A4H   LINE      CODE     ---       #114
      010015A7H   LINE      CODE     ---       #117
      010015A9H   LINE      CODE     ---       #118
      010015A9H   LINE      CODE     ---       #119
      010015AAH   LINE      CODE     ---       #120
      010015ADH   LINE      CODE     ---       #122
      010015AFH   LINE      CODE     ---       #125
      010015AFH   LINE      CODE     ---       #126
      010015AFH   LINE      CODE     ---       #127
      010015B2H   LINE      CODE     ---       #128
      010015B5H   LINE      CODE     ---       #131
      010015BBH   LINE      CODE     ---       #132
      010015BBH   LINE      CODE     ---       #133
      010015BBH   LINE      CODE     ---       #134
      ---         BLOCKEND  ---      ---       LVL=0

      01001F82H   BLOCK     CODE     ---       LVL=0
      00000021H.5 SYMBOL    BIT      BIT       en
      01001F82H   LINE      CODE     ---       #137
      01001F82H   LINE      CODE     ---       #138
      01001F86H   LINE      CODE     ---       #139
      ---         BLOCKEND  ---      ---       LVL=0

      01000AAAH   BLOCK     CODE     ---       LVL=0
      01000AAAH   BLOCK     CODE     NEAR LAB  LVL=1
      02000034H   SYMBOL    PDATA    WORD      solarMv
      02000036H   SYMBOL    PDATA    WORD      battMv
      00000006H   SYMBOL    DATA     WORD      solarMa
      ---         BLOCKEND  ---      ---       LVL=1
      01000AAAH   LINE      CODE     ---       #142
      01000AAAH   LINE      CODE     ---       #143
      01000AAAH   LINE      CODE     ---       #148
      01000AB0H   LINE      CODE     ---       #150
      01000ABCH   LINE      CODE     ---       #151
      01000AC8H   LINE      CODE     ---       #152
      01000ACDH   LINE      CODE     ---       #157
      01000AF3H   LINE      CODE     ---       #158
      01000B11H   LINE      CODE     ---       #161
      01000B1FH   LINE      CODE     ---       #163
      01000B2BH   LINE      CODE     ---       #164
      01000B32H   LINE      CODE     ---       #165
      01000B32H   LINE      CODE     ---       #166
      01000B32H   LINE      CODE     ---       #167
      01000B42H   LINE      CODE     ---       #169
      01000B4DH   LINE      CODE     ---       #170
      01000B54H   LINE      CODE     ---       #171
      01000B57H   LINE      CODE     ---       #172
      01000B57H   LINE      CODE     ---       #173
      01000B57H   LINE      CODE     ---       #177
      01000B6CH   LINE      CODE     ---       #178
      01000B78H   LINE      CODE     ---       #179
      01000B84H   LINE      CODE     ---       #180
      01000B8EH   LINE      CODE     ---       #181
      01000B8EH   LINE      CODE     ---       #182
      ---         BLOCKEND  ---      ---       LVL=0

      01001AA9H   BLOCK     CODE     ---       LVL=0
      00000006H   SYMBOL    DATA     WORD      ps
      01001AA9H   BLOCK     CODE     NEAR LAB  LVL=1
      00000005H   SYMBOL    DATA     BYTE      i
      ---         BLOCKEND  ---      ---       LVL=1
      01001AA9H   LINE      CODE     ---       #185
LX51 LINKER/LOCATER V4.66.97.0                                                        02/10/2023  14:24:31  PAGE 54


      01001AA9H   LINE      CODE     ---       #186
      01001AA9H   LINE      CODE     ---       #187
      01001AABH   LINE      CODE     ---       #191
      01001AB5H   LINE      CODE     ---       #192
      01001ACBH   LINE      CODE     ---       #193
      01001ACBH   LINE      CODE     ---       #194
      01001ACBH   LINE      CODE     ---       #195
      01001ACCH   LINE      CODE     ---       #196
      01001ACEH   LINE      CODE     ---       #198
      01001AD4H   LINE      CODE     ---       #199
      ---         BLOCKEND  ---      ---       LVL=0

      01001B9DH   BLOCK     CODE     ---       LVL=0
      01001B9DH   BLOCK     CODE     NEAR LAB  LVL=1
      00000006H   SYMBOL    DATA     WORD      pwmVal
      ---         BLOCKEND  ---      ---       LVL=1
      01001B9DH   LINE      CODE     ---       #210
      01001B9DH   LINE      CODE     ---       #211
      01001B9DH   LINE      CODE     ---       #214
      01001BA9H   LINE      CODE     ---       #217
      01001BACH   LINE      CODE     ---       #218
      01001BAFH   LINE      CODE     ---       #221
      01001BB5H   LINE      CODE     ---       #222
      01001BB8H   LINE      CODE     ---       #223
      01001BB9H   LINE      CODE     ---       #224
      01001BBFH   LINE      CODE     ---       #225
      01001BC2H   LINE      CODE     ---       #226
      01001BC2H   LINE      CODE     ---       #227
      01001BC2H   LINE      CODE     ---       #228
      ---         BLOCKEND  ---      ---       LVL=0

      ---         MODULE    ---      ---       CHARGE
      02000026H   PUBLIC    PDATA    WORD      chargeHighCount
      02000024H   PUBLIC    PDATA    WORD      v_b_mv
      02000022H   PUBLIC    PDATA    WORD      solarPowerMw
      02000020H   PUBLIC    PDATA    WORD      chargeMpptStepMv
      0200001FH   PUBLIC    PDATA    BYTE      chargeState
      0200001DH   PUBLIC    PDATA    WORD      i_s_ma
      0200001BH   PUBLIC    PDATA    WORD      chargeTimeoutCount
      00000022H.1 PUBLIC    BIT      BIT       chargeMpptScanEnable
      00000022H.0 PUBLIC    BIT      BIT       chargeMpptEnable
      02000019H   PUBLIC    PDATA    INT       i_c_ma
      02000017H   PUBLIC    PDATA    WORD      i_b_ma
      02000015H   PUBLIC    PDATA    WORD      chargeSolarRegMv
      00000021H.7 PUBLIC    BIT      BIT       chargeTempLimited
      02000013H   PUBLIC    PDATA    WORD      chargeScanEndMv
      02000011H   PUBLIC    PDATA    WORD      chargeMaxScanVSetpoint
      02000010H   PUBLIC    PDATA    BYTE      chargeLowProdCount
      0200000EH   PUBLIC    PDATA    WORD      chargeCompThreshMv
      0200000DH   PUBLIC    PDATA    BYTE      chargeAbsTermCount
      0200000BH   PUBLIC    PDATA    WORD      chargeMaxPower
      02000009H   PUBLIC    PDATA    WORD      v_s_mv
      02000005H   PUBLIC    PDATA    DWORD     solarPowerUw
      01001B28H   PUBLIC    CODE     ---       __CHARGE_StartScan
      01001E65H   PUBLIC    CODE     ---       _CHARGE_AdjustCompBattV
      00000021H.4 PUBLIC    BIT      BIT       ?_CHARGE_SetRegulate?BIT
      01001BC3H   PUBLIC    CODE     ---       _CHARGE_SetRegulate
      01001D4FH   PUBLIC    CODE     ---       _CHARGE_DecMpptRegVoltage
      01001D15H   PUBLIC    CODE     ---       _CHARGE_IncMpptRegVoltage
      01000F5AH   PUBLIC    CODE     ---       _CHARGE_ComputeChargeCurrent
      01001C2EH   PUBLIC    CODE     ---       _CHARGE_ComputePower
      010014E5H   PUBLIC    CODE     ---       __CHARGE_SetState
LX51 LINKER/LOCATER V4.66.97.0                                                        02/10/2023  14:24:31  PAGE 55


      010002B2H   PUBLIC    CODE     ---       CHARGE_StateUpdate
      01000705H   PUBLIC    CODE     ---       CHARGE_MpptUpdate
      01001895H   PUBLIC    CODE     ---       CHARGE_Init
      000000A2H   SFRSYM    DATA     BYTE      SPI0CKR
      00000080H   SFRSYM    DATA     BYTE      P0
      000000D0H.2 SFRSYM    DATA     BIT       PSW_OV
      000000B1H   SFRSYM    DATA     BYTE      XOSC0CN
      00000090H   SFRSYM    DATA     BYTE      P1
      000000A0H   SFRSYM    DATA     BYTE      P2
      00000097H   SFRSYM    DATA     BYTE      ADC0CF
      000000C0H.7 SFRSYM    DATA     BIT       SMB0CN0_MASTER
      000000F9H   SFRSYM    DATA     WORD      PCA0
      000000AEH   SFRSYM    DATA     BYTE      RTC0KEY
      000000E6H   SFRSYM    DATA     BYTE      EIE1
      000000C0H.1 SFRSYM    DATA     BIT       SMB0CN0_ACK
      000000E7H   SFRSYM    DATA     BYTE      EIE2
      0000008FH   SFRSYM    DATA     BYTE      PSCTL
      000000E4H   SFRSYM    DATA     BYTE      IT01CF
      000000B0H   SFRSYM    DATA     BYTE      CS0CN0
      000000C0H.6 SFRSYM    DATA     BIT       SMB0CN0_TXMODE
      000000E3H   SFRSYM    DATA     BYTE      DERIVID
      000000AFH   SFRSYM    DATA     BYTE      CS0MD1
      000000A7H   SFRSYM    DATA     BYTE      SFRPAGE
      000000F3H   SFRSYM    DATA     BYTE      CS0MD2
      000000A4H   SFRSYM    DATA     BYTE      P0MDOUT
      000000F3H   SFRSYM    DATA     BYTE      CS0MD3
      000000A5H   SFRSYM    DATA     BYTE      P1MDOUT
      000000E8H.5 SFRSYM    DATA     BIT       ADC0CN0_ADINT
      000000CBH   SFRSYM    DATA     BYTE      TMR2RLH
      000000A6H   SFRSYM    DATA     BYTE      P2MDOUT
      000000A8H   SFRSYM    DATA     BYTE      IE
      00000093H   SFRSYM    DATA     BYTE      TMR3RLH
      000000F6H   SFRSYM    DATA     BYTE      EIP1
      000000F7H   SFRSYM    DATA     BYTE      EIP2
      00000098H.2 SFRSYM    DATA     BIT       SCON0_RB8
      000000CAH   SFRSYM    DATA     BYTE      TMR2RLL
      000000FCH   SFRSYM    DATA     BYTE      PCA0CPH0
      00000092H   SFRSYM    DATA     BYTE      TMR3RLL
      000000EAH   SFRSYM    DATA     BYTE      PCA0CPH1
      00000098H.3 SFRSYM    DATA     BIT       SCON0_TB8
      000000B0H.7 SFRSYM    DATA     BIT       CS0CN0_CSEN
      000000F0H.0 SFRSYM    DATA     BIT       B_B0
      00000082H   SFRSYM    DATA     WORD      DP
      000000ECH   SFRSYM    DATA     BYTE      PCA0CPH2
      000000F0H.1 SFRSYM    DATA     BIT       B_B1
      000000C3H   SFRSYM    DATA     WORD      ADC0GT
      000000F0H.2 SFRSYM    DATA     BIT       B_B2
      000000FBH   SFRSYM    DATA     BYTE      PCA0CPL0
      000000F0H.3 SFRSYM    DATA     BIT       B_B3
      000000D9H   SFRSYM    DATA     BYTE      PCA0MD
      000000DAH   SFRSYM    DATA     BYTE      PCA0CPM0
      000000E9H   SFRSYM    DATA     BYTE      PCA0CPL1
      000000F0H.4 SFRSYM    DATA     BIT       B_B4
      000000DBH   SFRSYM    DATA     BYTE      PCA0CPM1
      000000EBH   SFRSYM    DATA     BYTE      PCA0CPL2
      000000F0H.5 SFRSYM    DATA     BIT       B_B5
      000000DCH   SFRSYM    DATA     BYTE      PCA0CPM2
      000000B8H   SFRSYM    DATA     BYTE      IP
      000000BCH   SFRSYM    DATA     BYTE      ADC0TK
      000000F0H.6 SFRSYM    DATA     BIT       B_B6
      000000C5H   SFRSYM    DATA     WORD      ADC0LT
      000000D6H   SFRSYM    DATA     BYTE      IREF0CN0
LX51 LINKER/LOCATER V4.66.97.0                                                        02/10/2023  14:24:31  PAGE 56


      00000098H.5 SFRSYM    DATA     BIT       SCON0_MCE
      000000F0H.7 SFRSYM    DATA     BIT       B_B7
      000000E1H   SFRSYM    DATA     BYTE      XBR0
      000000C1H   SFRSYM    DATA     BYTE      SMB0CF
      000000E2H   SFRSYM    DATA     BYTE      XBR1
      000000D2H   SFRSYM    DATA     BYTE      CS0SCAN0
      000000C0H.5 SFRSYM    DATA     BIT       SMB0CN0_STA
      000000E3H   SFRSYM    DATA     BYTE      XBR2
      000000D3H   SFRSYM    DATA     BYTE      CS0SCAN1
      00000096H   SFRSYM    DATA     BYTE      ADC0MX
      000000E0H.0 SFRSYM    DATA     BIT       ACC_ACC0
      000000D1H   SFRSYM    DATA     BYTE      REF0CN
      000000B2H   SFRSYM    DATA     BYTE      HFO0CN
      0000008EH   SFRSYM    DATA     BYTE      CKCON0
      000000E0H.1 SFRSYM    DATA     BIT       ACC_ACC1
      000000C9H   SFRSYM    DATA     BYTE      REG0CN
      00000085H   SFRSYM    DATA     BYTE      CRC0IN
      000000C8H.2 SFRSYM    DATA     BIT       TMR2CN0_TR2
      000000E0H.2 SFRSYM    DATA     BIT       ACC_ACC2
      000000E0H.3 SFRSYM    DATA     BIT       ACC_ACC3
      00000081H   SFRSYM    DATA     BYTE      SP
      0000009DH   SFRSYM    DATA     BYTE      CMP0MD
      000000E0H.4 SFRSYM    DATA     BIT       ACC_ACC4
      000000D8H.0 SFRSYM    DATA     BIT       PCA0CN0_CCF0
      000000E0H.5 SFRSYM    DATA     BIT       ACC_ACC5
      000000D8H.1 SFRSYM    DATA     BIT       PCA0CN0_CCF1
      000000E0H.6 SFRSYM    DATA     BIT       ACC_ACC6
      000000CCH   SFRSYM    DATA     WORD      TMR2
      000000D8H.2 SFRSYM    DATA     BIT       PCA0CN0_CCF2
      000000E0H.7 SFRSYM    DATA     BIT       ACC_ACC7
      00000094H   SFRSYM    DATA     WORD      TMR3
      000000B0H.0 SFRSYM    DATA     BIT       CS0CN0_CSCMPF
      000000C0H.3 SFRSYM    DATA     BIT       SMB0CN0_ACKRQ
      000000FFH   SFRSYM    DATA     BYTE      VDM0CN
      000000F1H   SFRSYM    DATA     BYTE      P0MDIN
      00000098H.4 SFRSYM    DATA     BIT       SCON0_REN
      000000F2H   SFRSYM    DATA     BYTE      P1MDIN
      000000FEH   SFRSYM    DATA     BYTE      CS0THH
      000000C0H.4 SFRSYM    DATA     BIT       SMB0CN0_STO
      000000B5H   SFRSYM    DATA     BYTE      PMU0CF
      000000C7H   SFRSYM    DATA     BYTE      P0MASK
      000000BFH   SFRSYM    DATA     BYTE      P1MASK
      000000FDH   SFRSYM    DATA     BYTE      CS0THL
      000000D0H.3 SFRSYM    DATA     BIT       PSW_RS0
      000000D8H.7 SFRSYM    DATA     BIT       PCA0CN0_CF
      000000F8H.4 SFRSYM    DATA     BIT       SPI0CN0_RXOVRN
      000000D0H.4 SFRSYM    DATA     BIT       PSW_RS1
      000000C8H.0 SFRSYM    DATA     BIT       TMR2CN0_T2XCLK0
      000000C8H.1 SFRSYM    DATA     BIT       TMR2CN0_T2XCLK1
      000000E8H.7 SFRSYM    DATA     BIT       ADC0CN0_ADEN
      00000089H   SFRSYM    DATA     BYTE      TMOD
      00000088H   SFRSYM    DATA     BYTE      TCON
      000000B5H   SFRSYM    DATA     BYTE      PMU0MD
      000000CEH   SFRSYM    DATA     BYTE      PMU0FL
      0000009CH   SFRSYM    DATA     BYTE      CRC0FLIP
      000000D0H.0 SFRSYM    DATA     BIT       PSW_PARITY
      000000A8H.4 SFRSYM    DATA     BIT       IE_ES0
      0000009FH   SFRSYM    DATA     BYTE      CMP0MX
      000000A8H.1 SFRSYM    DATA     BIT       IE_ET0
      000000A8H.3 SFRSYM    DATA     BIT       IE_ET1
      000000D4H   SFRSYM    DATA     BYTE      P0SKIP
      000000A8H.5 SFRSYM    DATA     BIT       IE_ET2
LX51 LINKER/LOCATER V4.66.97.0                                                        02/10/2023  14:24:31  PAGE 57


      000000D5H   SFRSYM    DATA     BYTE      P1SKIP
      000000E8H   SFRSYM    DATA     BYTE      ADC0CN0
      000000A8H.0 SFRSYM    DATA     BIT       IE_EX0
      000000D8H.6 SFRSYM    DATA     BIT       PCA0CN0_CR
      000000A8H.2 SFRSYM    DATA     BIT       IE_EX1
      00000098H.7 SFRSYM    DATA     BIT       SCON0_SMODE
      000000A9H   SFRSYM    DATA     BYTE      CLKSEL
      000000F8H.0 SFRSYM    DATA     BIT       SPI0CN0_SPIEN
      000000F0H   SFRSYM    DATA     BYTE      B
      000000BEH   SFRSYM    DATA     BYTE      ADC0H
      0000009EH   SFRSYM    DATA     BYTE      CRC0AUTO
      000000B0H.4 SFRSYM    DATA     BIT       CS0CN0_CSBUSY
      000000E8H.6 SFRSYM    DATA     BIT       ADC0CN0_ADBMEN
      000000CAH   SFRSYM    DATA     WORD      TMR2RL
      000000BDH   SFRSYM    DATA     BYTE      ADC0L
      00000092H   SFRSYM    DATA     WORD      TMR3RL
      000000D8H   SFRSYM    DATA     BYTE      PCA0CN0
      000000E0H   SFRSYM    DATA     BYTE      ACC
      000000FBH   SFRSYM    DATA     WORD      PCA0CP0
      000000E9H   SFRSYM    DATA     WORD      PCA0CP1
      000000EBH   SFRSYM    DATA     WORD      PCA0CP2
      00000084H   SFRSYM    DATA     BYTE      CRC0CN0
      0000008CH   SFRSYM    DATA     BYTE      TH0
      000000B8H.4 SFRSYM    DATA     BIT       IP_PS0
      0000008DH   SFRSYM    DATA     BYTE      TH1
      000000FAH   SFRSYM    DATA     BYTE      PCA0H
      000000B8H.1 SFRSYM    DATA     BIT       IP_PT0
      000000B8H.3 SFRSYM    DATA     BIT       IP_PT1
      000000C0H.2 SFRSYM    DATA     BIT       SMB0CN0_ARBLOST
      000000B8H.5 SFRSYM    DATA     BIT       IP_PT2
      0000008AH   SFRSYM    DATA     BYTE      TL0
      000000AAH   SFRSYM    DATA     BYTE      CS0CF
      000000F8H.1 SFRSYM    DATA     BIT       SPI0CN0_TXBMT
      000000D0H.5 SFRSYM    DATA     BIT       PSW_F0
      000000A8H.6 SFRSYM    DATA     BIT       IE_ESPI0
      0000008BH   SFRSYM    DATA     BYTE      TL1
      000000F9H   SFRSYM    DATA     BYTE      PCA0L
      000000C0H.0 SFRSYM    DATA     BIT       SMB0CN0_SI
      000000D0H.1 SFRSYM    DATA     BIT       PSW_F1
      00000080H.0 SFRSYM    DATA     BIT       P0_B0
      000000B8H.0 SFRSYM    DATA     BIT       IP_PX0
      00000090H.0 SFRSYM    DATA     BIT       P1_B0
      00000080H.1 SFRSYM    DATA     BIT       P0_B1
      000000B8H.2 SFRSYM    DATA     BIT       IP_PX1
      000000EEH   SFRSYM    DATA     BYTE      CS0DH
      0000009BH   SFRSYM    DATA     BYTE      CMP0CN0
      00000088H.1 SFRSYM    DATA     BIT       TCON_IE0
      00000090H.1 SFRSYM    DATA     BIT       P1_B1
      00000080H.2 SFRSYM    DATA     BIT       P0_B2
      00000088H.3 SFRSYM    DATA     BIT       TCON_IE1
      00000090H.2 SFRSYM    DATA     BIT       P1_B2
      00000080H.3 SFRSYM    DATA     BIT       P0_B3
      000000C0H   SFRSYM    DATA     BYTE      SMB0CN0
      00000090H.3 SFRSYM    DATA     BIT       P1_B3
      00000080H.4 SFRSYM    DATA     BIT       P0_B4
      00000090H.4 SFRSYM    DATA     BIT       P1_B4
      00000080H.5 SFRSYM    DATA     BIT       P0_B5
      000000EDH   SFRSYM    DATA     BYTE      CS0DL
      00000090H.5 SFRSYM    DATA     BIT       P1_B5
      00000080H.6 SFRSYM    DATA     BIT       P0_B6
      00000090H.6 SFRSYM    DATA     BIT       P1_B6
      00000080H.7 SFRSYM    DATA     BIT       P0_B7
LX51 LINKER/LOCATER V4.66.97.0                                                        02/10/2023  14:24:31  PAGE 58


      00000090H.7 SFRSYM    DATA     BIT       P1_B7
      000000A0H.7 SFRSYM    DATA     BIT       P2_B7
      00000083H   SFRSYM    DATA     BYTE      DPH
      000000C4H   SFRSYM    DATA     BYTE      ADC0GTH
      000000C8H.7 SFRSYM    DATA     BIT       TMR2CN0_TF2H
      000000C8H.3 SFRSYM    DATA     BIT       TMR2CN0_T2SPLIT
      000000D0H.6 SFRSYM    DATA     BIT       PSW_AC
      000000F8H   SFRSYM    DATA     BYTE      SPI0CN0
      000000B3H   SFRSYM    DATA     BYTE      HFO0CAL
      000000DEH   SFRSYM    DATA     BYTE      CS0SE
      00000088H.5 SFRSYM    DATA     BIT       TCON_TF0
      00000098H.0 SFRSYM    DATA     BIT       SCON0_RI
      00000082H   SFRSYM    DATA     BYTE      DPL
      00000088H.7 SFRSYM    DATA     BIT       TCON_TF1
      00000099H   SFRSYM    DATA     BYTE      SBUF0
      00000087H   SFRSYM    DATA     BYTE      PCON0
      000000B9H   SFRSYM    DATA     BYTE      IREF0CF
      000000C3H   SFRSYM    DATA     BYTE      ADC0GTL
      000000C8H.6 SFRSYM    DATA     BIT       TMR2CN0_TF2L
      00000098H.1 SFRSYM    DATA     BIT       SCON0_TI
      000000E8H.0 SFRSYM    DATA     BIT       ADC0CN0_ADCM0
      000000C6H   SFRSYM    DATA     BYTE      ADC0LTH
      00000088H.0 SFRSYM    DATA     BIT       TCON_IT0
      000000B0H.1 SFRSYM    DATA     BIT       CS0CN0_CSPME
      000000E8H.1 SFRSYM    DATA     BIT       ADC0CN0_ADCM1
      000000EFH   SFRSYM    DATA     BYTE      RSTSRC
      000000D7H   SFRSYM    DATA     BYTE      P0MAT
      00000086H   SFRSYM    DATA     BYTE      CRC0DAT
      00000088H.2 SFRSYM    DATA     BIT       TCON_IT1
      000000E8H.2 SFRSYM    DATA     BIT       ADC0CN0_ADCM2
      00000098H   SFRSYM    DATA     BYTE      SCON0
      000000CFH   SFRSYM    DATA     BYTE      P1MAT
      000000DEH   SFRSYM    DATA     BYTE      CS0PM
      000000E8H.3 SFRSYM    DATA     BIT       ADC0CN0_ADWINT
      000000E8H.4 SFRSYM    DATA     BIT       ADC0CN0_ADBUSY
      000000F5H   SFRSYM    DATA     BYTE      SMB0ADM
      000000C5H   SFRSYM    DATA     BYTE      ADC0LTL
      000000F8H.5 SFRSYM    DATA     BIT       SPI0CN0_MODF
      000000B8H.6 SFRSYM    DATA     BIT       IP_PSPI0
      000000B0H.6 SFRSYM    DATA     BIT       CS0CN0_CSEOS
      000000C8H   SFRSYM    DATA     BYTE      TMR2CN0
      00000091H   SFRSYM    DATA     BYTE      TMR3CN0
      000000F4H   SFRSYM    DATA     BYTE      SMB0ADR
      00000088H.4 SFRSYM    DATA     BIT       TCON_TR0
      000000B0H.5 SFRSYM    DATA     BIT       CS0CN0_CSINT
      000000ABH   SFRSYM    DATA     BYTE      CS0MX
      000000C8H.4 SFRSYM    DATA     BIT       TMR2CN0_TF2CEN
      00000088H.6 SFRSYM    DATA     BIT       TCON_TR1
      000000C2H   SFRSYM    DATA     BYTE      SMB0DAT
      00000099H   SFRSYM    DATA     BYTE      P0DRV
      000000DDH   SFRSYM    DATA     BYTE      CS0SS
      00000080H.0 SFRSYM    DATA     BIT       AUX
      000000CDH   SFRSYM    DATA     BYTE      TMR2H
      000000A1H   SFRSYM    DATA     BYTE      SPI0CFG
      0000009BH   SFRSYM    DATA     BYTE      P1DRV
      00000095H   SFRSYM    DATA     BYTE      TMR3H
      0000009DH   SFRSYM    DATA     BYTE      P2DRV
      0000009AH   SFRSYM    DATA     BYTE      CRC0CNT
      000000CCH   SFRSYM    DATA     BYTE      TMR2L
      000000ACH   SFRSYM    DATA     BYTE      RTC0ADR
      000000F8H.7 SFRSYM    DATA     BIT       SPI0CN0_SPIF
      00000094H   SFRSYM    DATA     BYTE      TMR3L
LX51 LINKER/LOCATER V4.66.97.0                                                        02/10/2023  14:24:31  PAGE 59


      000000BBH   SFRSYM    DATA     BYTE      ADC0PWR
      000000A8H.7 SFRSYM    DATA     BIT       IE_EA
      000000ADH   SFRSYM    DATA     BYTE      RTC0DAT
      000000B0H.3 SFRSYM    DATA     BIT       CS0CN0_CSCMPEN
      000000B6H   SFRSYM    DATA     BYTE      FLSCL
      000000C8H.5 SFRSYM    DATA     BIT       TMR2CN0_TF2LEN
      000000F8H.6 SFRSYM    DATA     BIT       SPI0CN0_WCOL
      000000F8H.2 SFRSYM    DATA     BIT       SPI0CN0_NSSMD0
      000000D0H.7 SFRSYM    DATA     BIT       PSW_CY
      000000A3H   SFRSYM    DATA     BYTE      SPI0DAT
      000000F8H.3 SFRSYM    DATA     BIT       SPI0CN0_NSSMD1
      000000BDH   SFRSYM    DATA     WORD      ADC0
      0000008EH   SFRSYM    DATA     BYTE      TOFFH
      000000D0H   SFRSYM    DATA     BYTE      PSW
      000000DFH   SFRSYM    DATA     BYTE      PCA0PWM
      000000E2H   SFRSYM    DATA     BYTE      REVID
      0000008DH   SFRSYM    DATA     BYTE      TOFFL
      000000B7H   SFRSYM    DATA     BYTE      FLKEY
      000000BAH   SFRSYM    DATA     BYTE      ADC0AC

      0100121BH   BLOCK     CODE     ---       LVL=0
      ---         BLOCKEND  ---      ---       LVL=0

      01001895H   BLOCK     CODE     ---       LVL=0
      01001895H   LINE      CODE     ---       #96
      01001895H   LINE      CODE     ---       #97
      01001897H   LINE      CODE     ---       #98
      01001899H   LINE      CODE     ---       #99
      0100189BH   LINE      CODE     ---       #100
      010018A4H   LINE      CODE     ---       #101
      010018ACH   LINE      CODE     ---       #102
      010018B0H   LINE      CODE     ---       #103
      010018B3H   LINE      CODE     ---       #104
      010018B8H   LINE      CODE     ---       #105
      010018BDH   LINE      CODE     ---       #106
      010018C4H   LINE      CODE     ---       #109
      010018D2H   LINE      CODE     ---       #110
      010018D6H   LINE      CODE     ---       #111
      010018D7H   LINE      CODE     ---       #112
      010018DCH   LINE      CODE     ---       #113
      010018DCH   LINE      CODE     ---       #114
      ---         BLOCKEND  ---      ---       LVL=0

      01000705H   BLOCK     CODE     ---       LVL=0
      01000705H   BLOCK     CODE     NEAR LAB  LVL=1
      02000000H   SYMBOL    PDATA    WORD      lastPowerMw
      02000002H   SYMBOL    PDATA    WORD      lastSolarMv
      00000021H.3 SYMBOL    BIT      BIT       deltaVpos
      ---         BLOCKEND  ---      ---       LVL=1
      01000705H   LINE      CODE     ---       #118
      01000705H   LINE      CODE     ---       #124
      01000711H   LINE      CODE     ---       #125
      0100071DH   LINE      CODE     ---       #126
      01000729H   LINE      CODE     ---       #127
      01000735H   LINE      CODE     ---       #128
      0100073FH   LINE      CODE     ---       #129
      01000749H   LINE      CODE     ---       #132
      0100074CH   LINE      CODE     ---       #134
      01000760H   LINE      CODE     ---       #135
      01000767H   LINE      CODE     ---       #136
      01000774H   LINE      CODE     ---       #137
      01000774H   LINE      CODE     ---       #140
LX51 LINKER/LOCATER V4.66.97.0                                                        02/10/2023  14:24:31  PAGE 60


      0100077FH   LINE      CODE     ---       #141
      01000787H   LINE      CODE     ---       #144
      01000797H   LINE      CODE     ---       #145
      01000799H   LINE      CODE     ---       #146
      01000799H   LINE      CODE     ---       #147
      0100079CH   LINE      CODE     ---       #151
      010007A2H   LINE      CODE     ---       #152
      010007A8H   LINE      CODE     ---       #155
      010007ADH   LINE      CODE     ---       #156
      010007B0H   LINE      CODE     ---       #158
      010007BFH   LINE      CODE     ---       #159
      010007C7H   LINE      CODE     ---       #160
      010007D4H   LINE      CODE     ---       #161
      010007DAH   LINE      CODE     ---       #162
      010007DCH   LINE      CODE     ---       #163
      010007E2H   LINE      CODE     ---       #164
      010007E2H   LINE      CODE     ---       #170
      010007F5H   LINE      CODE     ---       #171
      01000803H   LINE      CODE     ---       #172
      01000810H   LINE      CODE     ---       #173
      01000812H   LINE      CODE     ---       #175
      01000825H   LINE      CODE     ---       #178
      01000836H   LINE      CODE     ---       #184
      01000839H   LINE      CODE     ---       #185
      01000839H   LINE      CODE     ---       #186
      0100083BH   LINE      CODE     ---       #195
      0100083EH   LINE      CODE     ---       #196
      01000841H   LINE      CODE     ---       #197
      01000843H   LINE      CODE     ---       #198
      01000846H   LINE      CODE     ---       #199
      01000846H   LINE      CODE     ---       #200
      01000846H   LINE      CODE     ---       #201
      01000846H   LINE      CODE     ---       #204
      01000850H   LINE      CODE     ---       #205
      01000850H   LINE      CODE     ---       #206
      01000850H   LINE      CODE     ---       #209
      0100085DH   LINE      CODE     ---       #210
      01000867H   LINE      CODE     ---       #213
      0100086CH   LINE      CODE     ---       #214
      01000873H   LINE      CODE     ---       #215
      0100087AH   LINE      CODE     ---       #216
      01000886H   LINE      CODE     ---       #217
      01000892H   LINE      CODE     ---       #218
      0100089EH   LINE      CODE     ---       #219
      ---         BLOCKEND  ---      ---       LVL=0

      010002B2H   BLOCK     CODE     ---       LVL=0
      010002B2H   BLOCK     CODE     NEAR LAB  LVL=1
      00000021H.3 SYMBOL    BIT      BIT       b
      02000004H   SYMBOL    PDATA    BYTE      scanExitChargeState
      00000006H   SYMBOL    DATA     INT       t_c10
      ---         BLOCKEND  ---      ---       LVL=1
      010002B2H   LINE      CODE     ---       #222
      010002B2H   LINE      CODE     ---       #228
      010002BFH   LINE      CODE     ---       #230
      010002C4H   LINE      CODE     ---       #233
      010002D5H   LINE      CODE     ---       #234
      010002E9H   LINE      CODE     ---       #235
      010002EEH   LINE      CODE     ---       #236
      010002EEH   LINE      CODE     ---       #237
      010002F0H   LINE      CODE     ---       #238
      010002F6H   LINE      CODE     ---       #239
LX51 LINKER/LOCATER V4.66.97.0                                                        02/10/2023  14:24:31  PAGE 61


      010002F6H   LINE      CODE     ---       #240
      010002F8H   LINE      CODE     ---       #242
      010002FDH   LINE      CODE     ---       #243
      010002FDH   LINE      CODE     ---       #246
      01000304H   LINE      CODE     ---       #247
      01000307H   LINE      CODE     ---       #249
      01000320H   LINE      CODE     ---       #250
      0100032EH   LINE      CODE     ---       #251
      01000330H   LINE      CODE     ---       #252
      01000330H   LINE      CODE     ---       #253
      01000332H   LINE      CODE     ---       #255
      0100034AH   LINE      CODE     ---       #256
      01000358H   LINE      CODE     ---       #257
      0100035AH   LINE      CODE     ---       #258
      01000363H   LINE      CODE     ---       #259
      01000368H   LINE      CODE     ---       #260
      01000368H   LINE      CODE     ---       #261
      01000368H   LINE      CODE     ---       #262
      01000368H   LINE      CODE     ---       #265
      0100037AH   LINE      CODE     ---       #268
      01000380H   LINE      CODE     ---       #269
      01000380H   LINE      CODE     ---       #270
      01000382H   LINE      CODE     ---       #273
      0100038BH   LINE      CODE     ---       #278
      01000391H   LINE      CODE     ---       #279
      01000397H   LINE      CODE     ---       #280
      01000399H   LINE      CODE     ---       #281
      0100039BH   LINE      CODE     ---       #283
      0100039EH   LINE      CODE     ---       #284
      0100039EH   LINE      CODE     ---       #285
      010003A0H   LINE      CODE     ---       #291
      010003B2H   LINE      CODE     ---       #292
      010003C0H   LINE      CODE     ---       #293
      010003C5H   LINE      CODE     ---       #294
      010003C5H   LINE      CODE     ---       #295
      010003C7H   LINE      CODE     ---       #297
      010003CBH   LINE      CODE     ---       #298
      010003CBH   LINE      CODE     ---       #299
      010003CBH   LINE      CODE     ---       #302
      010003F2H   LINE      CODE     ---       #303
      010003F2H   LINE      CODE     ---       #304
      010003FEH   LINE      CODE     ---       #309
      01000410H   LINE      CODE     ---       #310
      01000410H   LINE      CODE     ---       #311
      01000410H   LINE      CODE     ---       #312
      01000413H   LINE      CODE     ---       #314
      01000416H   LINE      CODE     ---       #315
      01000416H   LINE      CODE     ---       #316
      01000419H   LINE      CODE     ---       #318
      01000419H   LINE      CODE     ---       #319
      01000425H   LINE      CODE     ---       #320
      01000435H   LINE      CODE     ---       #321
      01000436H   LINE      CODE     ---       #322
      01000436H   LINE      CODE     ---       #323
      01000439H   LINE      CODE     ---       #324
      0100043CH   LINE      CODE     ---       #327
      01000459H   LINE      CODE     ---       #328
      0100045EH   LINE      CODE     ---       #329
      01000475H   LINE      CODE     ---       #330
      0100047AH   LINE      CODE     ---       #331
      0100047DH   LINE      CODE     ---       #332
      0100047FH   LINE      CODE     ---       #333
LX51 LINKER/LOCATER V4.66.97.0                                                        02/10/2023  14:24:31  PAGE 62


      01000482H   LINE      CODE     ---       #334
      01000482H   LINE      CODE     ---       #335
      01000482H   LINE      CODE     ---       #336
      01000482H   LINE      CODE     ---       #337
      01000484H   LINE      CODE     ---       #339
      01000484H   LINE      CODE     ---       #340
      0100048DH   LINE      CODE     ---       #341
      0100048FH   LINE      CODE     ---       #342
      0100048FH   LINE      CODE     ---       #343
      01000491H   LINE      CODE     ---       #345
      01000491H   LINE      CODE     ---       #346
      01000494H   LINE      CODE     ---       #348
      01000499H   LINE      CODE     ---       #349
      0100049EH   LINE      CODE     ---       #350
      010004A6H   LINE      CODE     ---       #353
      010004B3H   LINE      CODE     ---       #354
      010004B3H   LINE      CODE     ---       #355
      010004B3H   LINE      CODE     ---       #356
      010004B3H   LINE      CODE     ---       #357
      010004B5H   LINE      CODE     ---       #359
      010004B5H   LINE      CODE     ---       #360
      010004B8H   LINE      CODE     ---       #363
      010004C0H   LINE      CODE     ---       #364
      010004C2H   LINE      CODE     ---       #365
      010004C2H   LINE      CODE     ---       #366
      010004C4H   LINE      CODE     ---       #368
      010004C4H   LINE      CODE     ---       #369
      010004C7H   LINE      CODE     ---       #374
      010004D8H   LINE      CODE     ---       #375
      010004E1H   LINE      CODE     ---       #376
      010004E3H   LINE      CODE     ---       #377
      010004E3H   LINE      CODE     ---       #378
      010004E5H   LINE      CODE     ---       #380
      010004E9H   LINE      CODE     ---       #381
      010004E9H   LINE      CODE     ---       #382
      010004EBH   LINE      CODE     ---       #384
      010004EBH   LINE      CODE     ---       #385
      010004EEH   LINE      CODE     ---       #386
      010004F0H   LINE      CODE     ---       #388
      010004F0H   LINE      CODE     ---       #389
      010004F5H   LINE      CODE     ---       #390
      010004F5H   LINE      CODE     ---       #391
      010004F5H   LINE      CODE     ---       #394
      01000500H   LINE      CODE     ---       #395
      ---         BLOCKEND  ---      ---       LVL=0

      010014E5H   BLOCK     CODE     ---       LVL=0
      00000007H   SYMBOL    DATA     BYTE      newSt
      010014E5H   LINE      CODE     ---       #404
      010014E5H   LINE      CODE     ---       #405
      010014E5H   LINE      CODE     ---       #406
      010014E9H   LINE      CODE     ---       #407
      0100150AH   LINE      CODE     ---       #408
      0100150AH   LINE      CODE     ---       #409
      0100150AH   LINE      CODE     ---       #410
      0100150CH   LINE      CODE     ---       #412
      0100150CH   LINE      CODE     ---       #413
      0100150FH   LINE      CODE     ---       #414
      0100150FH   LINE      CODE     ---       #415
      0100150FH   LINE      CODE     ---       #417
      01001511H   LINE      CODE     ---       #420
      01001513H   LINE      CODE     ---       #422
LX51 LINKER/LOCATER V4.66.97.0                                                        02/10/2023  14:24:31  PAGE 63


      01001513H   LINE      CODE     ---       #423
      01001516H   LINE      CODE     ---       #424
      01001527H   LINE      CODE     ---       #425
      01001529H   LINE      CODE     ---       #427
      01001529H   LINE      CODE     ---       #428
      0100152DH   LINE      CODE     ---       #429
      01001532H   LINE      CODE     ---       #430
      01001534H   LINE      CODE     ---       #431
      01001536H   LINE      CODE     ---       #433
      01001536H   LINE      CODE     ---       #434
      0100153AH   LINE      CODE     ---       #435
      0100153DH   LINE      CODE     ---       #436
      0100153FH   LINE      CODE     ---       #437
      01001541H   LINE      CODE     ---       #439
      01001541H   LINE      CODE     ---       #440
      01001545H   LINE      CODE     ---       #441
      0100154AH   LINE      CODE     ---       #442
      0100154AH   LINE      CODE     ---       #443
      0100154AH   LINE      CODE     ---       #446
      ---         BLOCKEND  ---      ---       LVL=0

      01001C2EH   BLOCK     CODE     ---       LVL=0
      01001C2EH   BLOCK     CODE     NEAR LAB  LVL=1
      00000004H   SYMBOL    DATA     DWORD     p
      ---         BLOCKEND  ---      ---       LVL=1
      01001C2EH   LINE      CODE     ---       #450
      01001C2EH   LINE      CODE     ---       #451
      01001C2EH   LINE      CODE     ---       #454
      01001C40H   LINE      CODE     ---       #455
      ---         BLOCKEND  ---      ---       LVL=0

      01000F5AH   BLOCK     CODE     ---       LVL=0
      01000F5AH   BLOCK     CODE     NEAR LAB  LVL=1
      02000028H   SYMBOL    PDATA    LONG      t
      ---         BLOCKEND  ---      ---       LVL=1
      01000F5AH   LINE      CODE     ---       #461
      01000F5AH   LINE      CODE     ---       #462
      01000F5AH   LINE      CODE     ---       #469
      01000F5DH   LINE      CODE     ---       #470
      01000F7CH   LINE      CODE     ---       #471
      01000FA0H   LINE      CODE     ---       #472
      01000FB3H   LINE      CODE     ---       #473
      01000FB5H   LINE      CODE     ---       #474
      01000FBEH   LINE      CODE     ---       #475
      01000FBEH   LINE      CODE     ---       #476
      01000FE8H   LINE      CODE     ---       #478
      01000FEEH   LINE      CODE     ---       #479
      ---         BLOCKEND  ---      ---       LVL=0

      01001D15H   BLOCK     CODE     ---       LVL=0
      01001D15H   LINE      CODE     ---       #482
      01001D15H   LINE      CODE     ---       #483
      01001D15H   LINE      CODE     ---       #484
      01001D21H   LINE      CODE     ---       #485
      01001D33H   LINE      CODE     ---       #486
      ---         BLOCKEND  ---      ---       LVL=0

      01001D4FH   BLOCK     CODE     ---       LVL=0
      01001D4FH   LINE      CODE     ---       #489
      01001D4FH   LINE      CODE     ---       #490
      01001D4FH   LINE      CODE     ---       #491
      01001D5CH   LINE      CODE     ---       #492
LX51 LINKER/LOCATER V4.66.97.0                                                        02/10/2023  14:24:31  PAGE 64


      01001D69H   LINE      CODE     ---       #493
      ---         BLOCKEND  ---      ---       LVL=0

      01001BC3H   BLOCK     CODE     ---       LVL=0
      00000021H.4 SYMBOL    BIT      BIT       en
      01001BC3H   LINE      CODE     ---       #496
      01001BC3H   LINE      CODE     ---       #497
      01001BC3H   LINE      CODE     ---       #498
      01001BC6H   LINE      CODE     ---       #500
      01001BD0H   LINE      CODE     ---       #501
      01001BD6H   LINE      CODE     ---       #502
      01001BDBH   LINE      CODE     ---       #503
      01001BDBH   LINE      CODE     ---       #504
      01001BE2H   LINE      CODE     ---       #505
      01001BE6H   LINE      CODE     ---       #506
      ---         BLOCKEND  ---      ---       LVL=0

      01001E65H   BLOCK     CODE     ---       LVL=0
      01001E65H   LINE      CODE     ---       #509
      01001E65H   LINE      CODE     ---       #510
      01001E65H   LINE      CODE     ---       #511
      01001E72H   LINE      CODE     ---       #512
      01001E75H   LINE      CODE     ---       #513
      01001E75H   LINE      CODE     ---       #514
      ---         BLOCKEND  ---      ---       LVL=0

      01001B28H   BLOCK     CODE     ---       LVL=0
      00000006H   SYMBOL    DATA     WORD      lowMv
      00000004H   SYMBOL    DATA     WORD      highMv
      01001B28H   LINE      CODE     ---       #517
      01001B28H   LINE      CODE     ---       #518
      01001B28H   LINE      CODE     ---       #519
      01001B2AH   LINE      CODE     ---       #520
      01001B31H   LINE      CODE     ---       #521
      01001B37H   LINE      CODE     ---       #522
      01001B3DH   LINE      CODE     ---       #523
      01001B3FH   LINE      CODE     ---       #524
      01001B46H   LINE      CODE     ---       #525
      01001B4BH   LINE      CODE     ---       #526
      ---         BLOCKEND  ---      ---       LVL=0

      ---         MODULE    ---      ---       LED
      0200006FH   PUBLIC    PDATA    WORD      LED_curPeriod
      0200006DH   PUBLIC    PDATA    WORD      LED_maxPeriod
      0200006BH   PUBLIC    PDATA    WORD      LED_pulseValue
      0200006AH   PUBLIC    PDATA    BYTE      LED_blinkState
      02000069H   PUBLIC    PDATA    BYTE      LED_curPwm
      02000068H   PUBLIC    PDATA    BYTE      LED_totBlinkCount
      02000067H   PUBLIC    PDATA    BYTE      LED_pulseMax
      02000066H   PUBLIC    PDATA    BYTE      LED_curState
      02000065H   PUBLIC    PDATA    BYTE      LED_curBlinkCount
      02000064H   PUBLIC    PDATA    BYTE      LED_curFault
      02000062H   PUBLIC    PDATA    WORD      LED_pulseInc
      010016E7H   PUBLIC    CODE     ---       _LED_DoPulse
      01001396H   PUBLIC    CODE     ---       _LED_DoBlink
      01001195H   PUBLIC    CODE     ---       _LED_SetupPulse
      01001C95H   PUBLIC    CODE     ---       __LED_SetupBlink
      01001F6EH   PUBLIC    CODE     ---       __LED_SetConstIntensity
      01001AD5H   PUBLIC    CODE     ---       _LED_SetCurPwm2Led
      01001DE1H   PUBLIC    CODE     ---       _LED_ReturnFaultInfo
      01001965H   PUBLIC    CODE     ---       __LED_SetupFault
      01001D9EH   PUBLIC    CODE     ---       _LED_ReturnCurNormalState
LX51 LINKER/LOCATER V4.66.97.0                                                        02/10/2023  14:24:31  PAGE 65


      01001A49H   PUBLIC    CODE     ---       __LED_SetNormalState
      0100179CH   PUBLIC    CODE     ---       LED_Update
      01001BE7H   PUBLIC    CODE     ---       LED_Init
      000000A2H   SFRSYM    DATA     BYTE      SPI0CKR
      00000080H   SFRSYM    DATA     BYTE      P0
      000000D0H.2 SFRSYM    DATA     BIT       PSW_OV
      000000B1H   SFRSYM    DATA     BYTE      XOSC0CN
      00000090H   SFRSYM    DATA     BYTE      P1
      000000A0H   SFRSYM    DATA     BYTE      P2
      00000097H   SFRSYM    DATA     BYTE      ADC0CF
      000000C0H.7 SFRSYM    DATA     BIT       SMB0CN0_MASTER
      000000F9H   SFRSYM    DATA     WORD      PCA0
      000000AEH   SFRSYM    DATA     BYTE      RTC0KEY
      000000E6H   SFRSYM    DATA     BYTE      EIE1
      000000C0H.1 SFRSYM    DATA     BIT       SMB0CN0_ACK
      000000E7H   SFRSYM    DATA     BYTE      EIE2
      0000008FH   SFRSYM    DATA     BYTE      PSCTL
      000000E4H   SFRSYM    DATA     BYTE      IT01CF
      000000B0H   SFRSYM    DATA     BYTE      CS0CN0
      000000C0H.6 SFRSYM    DATA     BIT       SMB0CN0_TXMODE
      000000E3H   SFRSYM    DATA     BYTE      DERIVID
      000000AFH   SFRSYM    DATA     BYTE      CS0MD1
      000000A7H   SFRSYM    DATA     BYTE      SFRPAGE
      000000F3H   SFRSYM    DATA     BYTE      CS0MD2
      000000A4H   SFRSYM    DATA     BYTE      P0MDOUT
      000000F3H   SFRSYM    DATA     BYTE      CS0MD3
      000000A5H   SFRSYM    DATA     BYTE      P1MDOUT
      000000E8H.5 SFRSYM    DATA     BIT       ADC0CN0_ADINT
      000000CBH   SFRSYM    DATA     BYTE      TMR2RLH
      000000A6H   SFRSYM    DATA     BYTE      P2MDOUT
      000000A8H   SFRSYM    DATA     BYTE      IE
      00000093H   SFRSYM    DATA     BYTE      TMR3RLH
      000000F6H   SFRSYM    DATA     BYTE      EIP1
      000000F7H   SFRSYM    DATA     BYTE      EIP2
      00000098H.2 SFRSYM    DATA     BIT       SCON0_RB8
      000000CAH   SFRSYM    DATA     BYTE      TMR2RLL
      000000FCH   SFRSYM    DATA     BYTE      PCA0CPH0
      00000092H   SFRSYM    DATA     BYTE      TMR3RLL
      000000EAH   SFRSYM    DATA     BYTE      PCA0CPH1
      00000098H.3 SFRSYM    DATA     BIT       SCON0_TB8
      000000B0H.7 SFRSYM    DATA     BIT       CS0CN0_CSEN
      000000F0H.0 SFRSYM    DATA     BIT       B_B0
      00000082H   SFRSYM    DATA     WORD      DP
      000000ECH   SFRSYM    DATA     BYTE      PCA0CPH2
      000000F0H.1 SFRSYM    DATA     BIT       B_B1
      000000C3H   SFRSYM    DATA     WORD      ADC0GT
      000000F0H.2 SFRSYM    DATA     BIT       B_B2
      000000FBH   SFRSYM    DATA     BYTE      PCA0CPL0
      000000F0H.3 SFRSYM    DATA     BIT       B_B3
      000000D9H   SFRSYM    DATA     BYTE      PCA0MD
      000000DAH   SFRSYM    DATA     BYTE      PCA0CPM0
      000000E9H   SFRSYM    DATA     BYTE      PCA0CPL1
      000000F0H.4 SFRSYM    DATA     BIT       B_B4
      000000DBH   SFRSYM    DATA     BYTE      PCA0CPM1
      000000EBH   SFRSYM    DATA     BYTE      PCA0CPL2
      000000F0H.5 SFRSYM    DATA     BIT       B_B5
      000000DCH   SFRSYM    DATA     BYTE      PCA0CPM2
      000000B8H   SFRSYM    DATA     BYTE      IP
      000000BCH   SFRSYM    DATA     BYTE      ADC0TK
      000000F0H.6 SFRSYM    DATA     BIT       B_B6
      000000C5H   SFRSYM    DATA     WORD      ADC0LT
      000000D6H   SFRSYM    DATA     BYTE      IREF0CN0
LX51 LINKER/LOCATER V4.66.97.0                                                        02/10/2023  14:24:31  PAGE 66


      00000098H.5 SFRSYM    DATA     BIT       SCON0_MCE
      000000F0H.7 SFRSYM    DATA     BIT       B_B7
      000000E1H   SFRSYM    DATA     BYTE      XBR0
      000000C1H   SFRSYM    DATA     BYTE      SMB0CF
      000000E2H   SFRSYM    DATA     BYTE      XBR1
      000000D2H   SFRSYM    DATA     BYTE      CS0SCAN0
      000000C0H.5 SFRSYM    DATA     BIT       SMB0CN0_STA
      000000E3H   SFRSYM    DATA     BYTE      XBR2
      000000D3H   SFRSYM    DATA     BYTE      CS0SCAN1
      00000096H   SFRSYM    DATA     BYTE      ADC0MX
      000000E0H.0 SFRSYM    DATA     BIT       ACC_ACC0
      000000D1H   SFRSYM    DATA     BYTE      REF0CN
      000000B2H   SFRSYM    DATA     BYTE      HFO0CN
      0000008EH   SFRSYM    DATA     BYTE      CKCON0
      000000E0H.1 SFRSYM    DATA     BIT       ACC_ACC1
      000000C9H   SFRSYM    DATA     BYTE      REG0CN
      00000085H   SFRSYM    DATA     BYTE      CRC0IN
      000000C8H.2 SFRSYM    DATA     BIT       TMR2CN0_TR2
      000000E0H.2 SFRSYM    DATA     BIT       ACC_ACC2
      000000E0H.3 SFRSYM    DATA     BIT       ACC_ACC3
      00000081H   SFRSYM    DATA     BYTE      SP
      0000009DH   SFRSYM    DATA     BYTE      CMP0MD
      000000E0H.4 SFRSYM    DATA     BIT       ACC_ACC4
      000000D8H.0 SFRSYM    DATA     BIT       PCA0CN0_CCF0
      000000E0H.5 SFRSYM    DATA     BIT       ACC_ACC5
      000000D8H.1 SFRSYM    DATA     BIT       PCA0CN0_CCF1
      000000E0H.6 SFRSYM    DATA     BIT       ACC_ACC6
      000000CCH   SFRSYM    DATA     WORD      TMR2
      000000D8H.2 SFRSYM    DATA     BIT       PCA0CN0_CCF2
      000000E0H.7 SFRSYM    DATA     BIT       ACC_ACC7
      00000094H   SFRSYM    DATA     WORD      TMR3
      000000B0H.0 SFRSYM    DATA     BIT       CS0CN0_CSCMPF
      000000C0H.3 SFRSYM    DATA     BIT       SMB0CN0_ACKRQ
      000000FFH   SFRSYM    DATA     BYTE      VDM0CN
      000000F1H   SFRSYM    DATA     BYTE      P0MDIN
      00000098H.4 SFRSYM    DATA     BIT       SCON0_REN
      000000F2H   SFRSYM    DATA     BYTE      P1MDIN
      000000FEH   SFRSYM    DATA     BYTE      CS0THH
      000000C0H.4 SFRSYM    DATA     BIT       SMB0CN0_STO
      000000B5H   SFRSYM    DATA     BYTE      PMU0CF
      000000C7H   SFRSYM    DATA     BYTE      P0MASK
      000000BFH   SFRSYM    DATA     BYTE      P1MASK
      000000FDH   SFRSYM    DATA     BYTE      CS0THL
      000000D0H.3 SFRSYM    DATA     BIT       PSW_RS0
      000000D8H.7 SFRSYM    DATA     BIT       PCA0CN0_CF
      000000F8H.4 SFRSYM    DATA     BIT       SPI0CN0_RXOVRN
      000000D0H.4 SFRSYM    DATA     BIT       PSW_RS1
      000000C8H.0 SFRSYM    DATA     BIT       TMR2CN0_T2XCLK0
      000000C8H.1 SFRSYM    DATA     BIT       TMR2CN0_T2XCLK1
      000000E8H.7 SFRSYM    DATA     BIT       ADC0CN0_ADEN
      00000089H   SFRSYM    DATA     BYTE      TMOD
      00000088H   SFRSYM    DATA     BYTE      TCON
      000000B5H   SFRSYM    DATA     BYTE      PMU0MD
      000000CEH   SFRSYM    DATA     BYTE      PMU0FL
      0000009CH   SFRSYM    DATA     BYTE      CRC0FLIP
      000000D0H.0 SFRSYM    DATA     BIT       PSW_PARITY
      000000A8H.4 SFRSYM    DATA     BIT       IE_ES0
      0000009FH   SFRSYM    DATA     BYTE      CMP0MX
      000000A8H.1 SFRSYM    DATA     BIT       IE_ET0
      000000A8H.3 SFRSYM    DATA     BIT       IE_ET1
      000000D4H   SFRSYM    DATA     BYTE      P0SKIP
      000000A8H.5 SFRSYM    DATA     BIT       IE_ET2
LX51 LINKER/LOCATER V4.66.97.0                                                        02/10/2023  14:24:31  PAGE 67


      000000D5H   SFRSYM    DATA     BYTE      P1SKIP
      000000E8H   SFRSYM    DATA     BYTE      ADC0CN0
      000000A8H.0 SFRSYM    DATA     BIT       IE_EX0
      000000D8H.6 SFRSYM    DATA     BIT       PCA0CN0_CR
      000000A8H.2 SFRSYM    DATA     BIT       IE_EX1
      00000098H.7 SFRSYM    DATA     BIT       SCON0_SMODE
      000000A9H   SFRSYM    DATA     BYTE      CLKSEL
      000000F8H.0 SFRSYM    DATA     BIT       SPI0CN0_SPIEN
      000000F0H   SFRSYM    DATA     BYTE      B
      000000BEH   SFRSYM    DATA     BYTE      ADC0H
      0000009EH   SFRSYM    DATA     BYTE      CRC0AUTO
      000000B0H.4 SFRSYM    DATA     BIT       CS0CN0_CSBUSY
      000000E8H.6 SFRSYM    DATA     BIT       ADC0CN0_ADBMEN
      000000CAH   SFRSYM    DATA     WORD      TMR2RL
      000000BDH   SFRSYM    DATA     BYTE      ADC0L
      00000092H   SFRSYM    DATA     WORD      TMR3RL
      000000D8H   SFRSYM    DATA     BYTE      PCA0CN0
      000000E0H   SFRSYM    DATA     BYTE      ACC
      000000FBH   SFRSYM    DATA     WORD      PCA0CP0
      000000E9H   SFRSYM    DATA     WORD      PCA0CP1
      000000EBH   SFRSYM    DATA     WORD      PCA0CP2
      00000084H   SFRSYM    DATA     BYTE      CRC0CN0
      0000008CH   SFRSYM    DATA     BYTE      TH0
      000000B8H.4 SFRSYM    DATA     BIT       IP_PS0
      0000008DH   SFRSYM    DATA     BYTE      TH1
      000000FAH   SFRSYM    DATA     BYTE      PCA0H
      000000B8H.1 SFRSYM    DATA     BIT       IP_PT0
      000000B8H.3 SFRSYM    DATA     BIT       IP_PT1
      000000C0H.2 SFRSYM    DATA     BIT       SMB0CN0_ARBLOST
      000000B8H.5 SFRSYM    DATA     BIT       IP_PT2
      0000008AH   SFRSYM    DATA     BYTE      TL0
      000000AAH   SFRSYM    DATA     BYTE      CS0CF
      000000F8H.1 SFRSYM    DATA     BIT       SPI0CN0_TXBMT
      000000D0H.5 SFRSYM    DATA     BIT       PSW_F0
      000000A8H.6 SFRSYM    DATA     BIT       IE_ESPI0
      0000008BH   SFRSYM    DATA     BYTE      TL1
      000000F9H   SFRSYM    DATA     BYTE      PCA0L
      000000C0H.0 SFRSYM    DATA     BIT       SMB0CN0_SI
      000000D0H.1 SFRSYM    DATA     BIT       PSW_F1
      00000080H.0 SFRSYM    DATA     BIT       P0_B0
      000000B8H.0 SFRSYM    DATA     BIT       IP_PX0
      00000090H.0 SFRSYM    DATA     BIT       P1_B0
      00000080H.1 SFRSYM    DATA     BIT       P0_B1
      000000B8H.2 SFRSYM    DATA     BIT       IP_PX1
      000000EEH   SFRSYM    DATA     BYTE      CS0DH
      0000009BH   SFRSYM    DATA     BYTE      CMP0CN0
      00000088H.1 SFRSYM    DATA     BIT       TCON_IE0
      00000090H.1 SFRSYM    DATA     BIT       P1_B1
      00000080H.2 SFRSYM    DATA     BIT       P0_B2
      00000088H.3 SFRSYM    DATA     BIT       TCON_IE1
      00000090H.2 SFRSYM    DATA     BIT       P1_B2
      00000080H.3 SFRSYM    DATA     BIT       P0_B3
      000000C0H   SFRSYM    DATA     BYTE      SMB0CN0
      00000090H.3 SFRSYM    DATA     BIT       P1_B3
      00000080H.4 SFRSYM    DATA     BIT       P0_B4
      00000090H.4 SFRSYM    DATA     BIT       P1_B4
      00000080H.5 SFRSYM    DATA     BIT       P0_B5
      000000EDH   SFRSYM    DATA     BYTE      CS0DL
      00000090H.5 SFRSYM    DATA     BIT       P1_B5
      00000080H.6 SFRSYM    DATA     BIT       P0_B6
      00000090H.6 SFRSYM    DATA     BIT       P1_B6
      00000080H.7 SFRSYM    DATA     BIT       P0_B7
LX51 LINKER/LOCATER V4.66.97.0                                                        02/10/2023  14:24:31  PAGE 68


      00000090H.7 SFRSYM    DATA     BIT       P1_B7
      000000A0H.7 SFRSYM    DATA     BIT       P2_B7
      00000083H   SFRSYM    DATA     BYTE      DPH
      000000C4H   SFRSYM    DATA     BYTE      ADC0GTH
      000000C8H.7 SFRSYM    DATA     BIT       TMR2CN0_TF2H
      000000C8H.3 SFRSYM    DATA     BIT       TMR2CN0_T2SPLIT
      000000D0H.6 SFRSYM    DATA     BIT       PSW_AC
      000000F8H   SFRSYM    DATA     BYTE      SPI0CN0
      000000B3H   SFRSYM    DATA     BYTE      HFO0CAL
      000000DEH   SFRSYM    DATA     BYTE      CS0SE
      00000088H.5 SFRSYM    DATA     BIT       TCON_TF0
      00000098H.0 SFRSYM    DATA     BIT       SCON0_RI
      00000082H   SFRSYM    DATA     BYTE      DPL
      00000088H.7 SFRSYM    DATA     BIT       TCON_TF1
      00000099H   SFRSYM    DATA     BYTE      SBUF0
      00000087H   SFRSYM    DATA     BYTE      PCON0
      000000B9H   SFRSYM    DATA     BYTE      IREF0CF
      000000C3H   SFRSYM    DATA     BYTE      ADC0GTL
      000000C8H.6 SFRSYM    DATA     BIT       TMR2CN0_TF2L
      00000098H.1 SFRSYM    DATA     BIT       SCON0_TI
      000000E8H.0 SFRSYM    DATA     BIT       ADC0CN0_ADCM0
      000000C6H   SFRSYM    DATA     BYTE      ADC0LTH
      00000088H.0 SFRSYM    DATA     BIT       TCON_IT0
      000000B0H.1 SFRSYM    DATA     BIT       CS0CN0_CSPME
      000000E8H.1 SFRSYM    DATA     BIT       ADC0CN0_ADCM1
      000000EFH   SFRSYM    DATA     BYTE      RSTSRC
      000000D7H   SFRSYM    DATA     BYTE      P0MAT
      00000086H   SFRSYM    DATA     BYTE      CRC0DAT
      00000088H.2 SFRSYM    DATA     BIT       TCON_IT1
      000000E8H.2 SFRSYM    DATA     BIT       ADC0CN0_ADCM2
      00000098H   SFRSYM    DATA     BYTE      SCON0
      000000CFH   SFRSYM    DATA     BYTE      P1MAT
      000000DEH   SFRSYM    DATA     BYTE      CS0PM
      000000E8H.3 SFRSYM    DATA     BIT       ADC0CN0_ADWINT
      000000E8H.4 SFRSYM    DATA     BIT       ADC0CN0_ADBUSY
      000000F5H   SFRSYM    DATA     BYTE      SMB0ADM
      000000C5H   SFRSYM    DATA     BYTE      ADC0LTL
      000000F8H.5 SFRSYM    DATA     BIT       SPI0CN0_MODF
      000000B8H.6 SFRSYM    DATA     BIT       IP_PSPI0
      000000B0H.6 SFRSYM    DATA     BIT       CS0CN0_CSEOS
      000000C8H   SFRSYM    DATA     BYTE      TMR2CN0
      00000091H   SFRSYM    DATA     BYTE      TMR3CN0
      000000F4H   SFRSYM    DATA     BYTE      SMB0ADR
      00000088H.4 SFRSYM    DATA     BIT       TCON_TR0
      000000B0H.5 SFRSYM    DATA     BIT       CS0CN0_CSINT
      000000ABH   SFRSYM    DATA     BYTE      CS0MX
      000000C8H.4 SFRSYM    DATA     BIT       TMR2CN0_TF2CEN
      00000088H.6 SFRSYM    DATA     BIT       TCON_TR1
      000000C2H   SFRSYM    DATA     BYTE      SMB0DAT
      00000099H   SFRSYM    DATA     BYTE      P0DRV
      000000DDH   SFRSYM    DATA     BYTE      CS0SS
      00000080H.0 SFRSYM    DATA     BIT       AUX
      000000CDH   SFRSYM    DATA     BYTE      TMR2H
      000000A1H   SFRSYM    DATA     BYTE      SPI0CFG
      0000009BH   SFRSYM    DATA     BYTE      P1DRV
      00000095H   SFRSYM    DATA     BYTE      TMR3H
      0000009DH   SFRSYM    DATA     BYTE      P2DRV
      0000009AH   SFRSYM    DATA     BYTE      CRC0CNT
      000000CCH   SFRSYM    DATA     BYTE      TMR2L
      000000ACH   SFRSYM    DATA     BYTE      RTC0ADR
      000000F8H.7 SFRSYM    DATA     BIT       SPI0CN0_SPIF
      00000094H   SFRSYM    DATA     BYTE      TMR3L
LX51 LINKER/LOCATER V4.66.97.0                                                        02/10/2023  14:24:31  PAGE 69


      000000BBH   SFRSYM    DATA     BYTE      ADC0PWR
      000000A8H.7 SFRSYM    DATA     BIT       IE_EA
      000000ADH   SFRSYM    DATA     BYTE      RTC0DAT
      000000B0H.3 SFRSYM    DATA     BIT       CS0CN0_CSCMPEN
      000000B6H   SFRSYM    DATA     BYTE      FLSCL
      000000C8H.5 SFRSYM    DATA     BIT       TMR2CN0_TF2LEN
      000000F8H.6 SFRSYM    DATA     BIT       SPI0CN0_WCOL
      000000F8H.2 SFRSYM    DATA     BIT       SPI0CN0_NSSMD0
      000000D0H.7 SFRSYM    DATA     BIT       PSW_CY
      000000A3H   SFRSYM    DATA     BYTE      SPI0DAT
      000000F8H.3 SFRSYM    DATA     BIT       SPI0CN0_NSSMD1
      000000BDH   SFRSYM    DATA     WORD      ADC0
      0000008EH   SFRSYM    DATA     BYTE      TOFFH
      000000D0H   SFRSYM    DATA     BYTE      PSW
      000000DFH   SFRSYM    DATA     BYTE      PCA0PWM
      000000E2H   SFRSYM    DATA     BYTE      REVID
      0000008DH   SFRSYM    DATA     BYTE      TOFFL
      000000B7H   SFRSYM    DATA     BYTE      FLKEY
      000000BAH   SFRSYM    DATA     BYTE      ADC0AC

      0100000EH   BLOCK     CODE     ---       LVL=0
      ---         BLOCKEND  ---      ---       LVL=0

      01001BE7H   BLOCK     CODE     ---       LVL=0
      01001BE7H   BLOCK     CODE     NEAR LAB  LVL=1
      02000028H   SYMBOL    PDATA    BYTE      t
      ---         BLOCKEND  ---      ---       LVL=1
      01001BE7H   LINE      CODE     ---       #72
      01001BE7H   LINE      CODE     ---       #73
      01001BE7H   LINE      CODE     ---       #76
      01001BEBH   LINE      CODE     ---       #77
      01001BEEH   LINE      CODE     ---       #78
      01001BF2H   LINE      CODE     ---       #81
      01001BF9H   LINE      CODE     ---       #82
      01001BFBH   LINE      CODE     ---       #83
      01001C00H   LINE      CODE     ---       #84
      01001C00H   LINE      CODE     ---       #86
      01001C07H   LINE      CODE     ---       #87
      01001C0AH   LINE      CODE     ---       #88
      01001C0AH   LINE      CODE     ---       #90
      ---         BLOCKEND  ---      ---       LVL=0

      0100179CH   BLOCK     CODE     ---       LVL=0
      0100179CH   BLOCK     CODE     NEAR LAB  LVL=1
      02000028H   SYMBOL    PDATA    BYTE      t
      ---         BLOCKEND  ---      ---       LVL=1
      0100179CH   LINE      CODE     ---       #95
      0100179CH   LINE      CODE     ---       #96
      0100179CH   LINE      CODE     ---       #100
      010017A3H   LINE      CODE     ---       #101
      010017AAH   LINE      CODE     ---       #103
      010017AFH   LINE      CODE     ---       #104
      010017B6H   LINE      CODE     ---       #105
      010017B6H   LINE      CODE     ---       #106
      010017B8H   LINE      CODE     ---       #107
      010017C4H   LINE      CODE     ---       #109
      010017C4H   LINE      CODE     ---       #110
      010017C6H   LINE      CODE     ---       #116
      010017CCH   LINE      CODE     ---       #118
      010017CFH   LINE      CODE     ---       #119
      010017CFH   LINE      CODE     ---       #121
      010017D6H   LINE      CODE     ---       #122
LX51 LINKER/LOCATER V4.66.97.0                                                        02/10/2023  14:24:31  PAGE 70


      010017DCH   LINE      CODE     ---       #123
      010017E3H   LINE      CODE     ---       #124
      010017E3H   LINE      CODE     ---       #126
      010017EAH   LINE      CODE     ---       #127
      010017EDH   LINE      CODE     ---       #128
      010017EDH   LINE      CODE     ---       #129
      010017F0H   LINE      CODE     ---       #130
      010017F0H   LINE      CODE     ---       #131
      010017F0H   LINE      CODE     ---       #132
      010017F0H   LINE      CODE     ---       #133
      010017F0H   LINE      CODE     ---       #134
      ---         BLOCKEND  ---      ---       LVL=0

      01001A49H   BLOCK     CODE     ---       LVL=0
      00000007H   SYMBOL    DATA     BYTE      s
      01001A49H   LINE      CODE     ---       #141
      01001A49H   LINE      CODE     ---       #142
      01001A49H   LINE      CODE     ---       #143
      01001A4DH   LINE      CODE     ---       #145
      01001A53H   LINE      CODE     ---       #146
      01001A55H   LINE      CODE     ---       #148
      01001A60H   LINE      CODE     ---       #149
      01001A60H   LINE      CODE     ---       #151
      01001A66H   LINE      CODE     ---       #152
      01001A68H   LINE      CODE     ---       #153
      01001A68H   LINE      CODE     ---       #155
      01001A71H   LINE      CODE     ---       #156
      01001A73H   LINE      CODE     ---       #157
      01001A73H   LINE      CODE     ---       #159
      01001A76H   LINE      CODE     ---       #160
      01001A76H   LINE      CODE     ---       #161
      01001A76H   LINE      CODE     ---       #164
      01001A79H   LINE      CODE     ---       #165
      01001A79H   LINE      CODE     ---       #166
      ---         BLOCKEND  ---      ---       LVL=0

      01001D9EH   BLOCK     CODE     ---       LVL=0
      01001D9EH   LINE      CODE     ---       #169
      01001D9EH   LINE      CODE     ---       #170
      01001D9EH   LINE      CODE     ---       #172
      01001DAAH   LINE      CODE     ---       #173
      01001DADH   LINE      CODE     ---       #174
      01001DB4H   LINE      CODE     ---       #175
      01001DB6H   LINE      CODE     ---       #176
      01001DB6H   LINE      CODE     ---       #177
      01001DB6H   LINE      CODE     ---       #178
      01001DB6H   LINE      CODE     ---       #179
      ---         BLOCKEND  ---      ---       LVL=0

      01001965H   BLOCK     CODE     ---       LVL=0
      00000007H   SYMBOL    DATA     BYTE      f
      01001965H   BLOCK     CODE     NEAR LAB  LVL=1
      02000029H   SYMBOL    PDATA    BYTE      t
      ---         BLOCKEND  ---      ---       LVL=1
      01001965H   LINE      CODE     ---       #182
      01001965H   LINE      CODE     ---       #183
      01001965H   LINE      CODE     ---       #186
      0100196AH   LINE      CODE     ---       #188
      01001970H   LINE      CODE     ---       #190
      01001972H   LINE      CODE     ---       #192
      0100197DH   LINE      CODE     ---       #193
      0100197DH   LINE      CODE     ---       #194
LX51 LINKER/LOCATER V4.66.97.0                                                        02/10/2023  14:24:31  PAGE 71


      01001982H   LINE      CODE     ---       #195
      01001984H   LINE      CODE     ---       #196
      01001984H   LINE      CODE     ---       #197
      01001989H   LINE      CODE     ---       #198
      0100198BH   LINE      CODE     ---       #199
      0100198BH   LINE      CODE     ---       #200
      01001990H   LINE      CODE     ---       #201
      01001992H   LINE      CODE     ---       #202
      01001992H   LINE      CODE     ---       #203
      01001997H   LINE      CODE     ---       #204
      01001997H   LINE      CODE     ---       #205
      010019A2H   LINE      CODE     ---       #208
      010019A5H   LINE      CODE     ---       #209
      010019A5H   LINE      CODE     ---       #210
      ---         BLOCKEND  ---      ---       LVL=0

      01001DE1H   BLOCK     CODE     ---       LVL=0
      01001DE1H   LINE      CODE     ---       #213
      01001DE1H   LINE      CODE     ---       #214
      01001DE1H   LINE      CODE     ---       #216
      01001DE4H   LINE      CODE     ---       #217
      01001DE7H   LINE      CODE     ---       #218
      01001DEAH   LINE      CODE     ---       #219
      01001DEDH   LINE      CODE     ---       #220
      01001DF2H   LINE      CODE     ---       #221
      01001DF4H   LINE      CODE     ---       #222
      01001DF4H   LINE      CODE     ---       #223
      01001DF4H   LINE      CODE     ---       #224
      01001DF4H   LINE      CODE     ---       #225
      ---         BLOCKEND  ---      ---       LVL=0

      01001AD5H   BLOCK     CODE     ---       LVL=0
      01001AD5H   BLOCK     CODE     NEAR LAB  LVL=1
      00000006H   SYMBOL    DATA     WORD      pwmVal
      ---         BLOCKEND  ---      ---       LVL=1
      01001AD5H   LINE      CODE     ---       #228
      01001AD5H   LINE      CODE     ---       #229
      01001AD5H   LINE      CODE     ---       #233
      01001AE8H   LINE      CODE     ---       #236
      01001AEBH   LINE      CODE     ---       #237
      01001AEEH   LINE      CODE     ---       #240
      01001AF1H   LINE      CODE     ---       #241
      01001AF4H   LINE      CODE     ---       #242
      01001AF5H   LINE      CODE     ---       #243
      01001AFBH   LINE      CODE     ---       #244
      01001AFEH   LINE      CODE     ---       #245
      01001AFEH   LINE      CODE     ---       #246
      01001AFEH   LINE      CODE     ---       #247
      ---         BLOCKEND  ---      ---       LVL=0

      01001F6EH   BLOCK     CODE     ---       LVL=0
      00000007H   SYMBOL    DATA     BYTE      intensity
      01001F6EH   LINE      CODE     ---       #250
      01001F6EH   LINE      CODE     ---       #251
      01001F6EH   LINE      CODE     ---       #252
      01001F72H   LINE      CODE     ---       #253
      ---         BLOCKEND  ---      ---       LVL=0

      01001C95H   BLOCK     CODE     ---       LVL=0
      00000006H   SYMBOL    DATA     WORD      blinkPeriod
      00000005H   SYMBOL    DATA     BYTE      blinkCount
      01001C95H   LINE      CODE     ---       #257
LX51 LINKER/LOCATER V4.66.97.0                                                        02/10/2023  14:24:31  PAGE 72


      01001C95H   LINE      CODE     ---       #258
      01001C95H   LINE      CODE     ---       #259
      01001C99H   LINE      CODE     ---       #260
      01001C9CH   LINE      CODE     ---       #261
      01001CA0H   LINE      CODE     ---       #262
      01001CADH   LINE      CODE     ---       #263
      01001CB2H   LINE      CODE     ---       #264
      01001CB5H   LINE      CODE     ---       #265
      ---         BLOCKEND  ---      ---       LVL=0

      01001195H   BLOCK     CODE     ---       LVL=0
      01001195H   BLOCK     CODE     NEAR LAB  LVL=1
      02000029H   SYMBOL    PDATA    DWORD     t
      ---         BLOCKEND  ---      ---       LVL=1
      01001195H   LINE      CODE     ---       #268
      01001195H   LINE      CODE     ---       #269
      01001195H   LINE      CODE     ---       #273
      010011A3H   LINE      CODE     ---       #274
      010011B5H   LINE      CODE     ---       #275
      010011CDH   LINE      CODE     ---       #278
      010011E7H   LINE      CODE     ---       #279
      010011ECH   LINE      CODE     ---       #280
      010011EEH   LINE      CODE     ---       #281
      010011F8H   LINE      CODE     ---       #282
      010011F8H   LINE      CODE     ---       #285
      0100120CH   LINE      CODE     ---       #288
      01001210H   LINE      CODE     ---       #289
      01001215H   LINE      CODE     ---       #290
      0100121AH   LINE      CODE     ---       #291
      ---         BLOCKEND  ---      ---       LVL=0

      01001396H   BLOCK     CODE     ---       LVL=0
      01001396H   LINE      CODE     ---       #294
      01001396H   LINE      CODE     ---       #295
      01001396H   LINE      CODE     ---       #296
      010013A3H   LINE      CODE     ---       #297
      010013A3H   LINE      CODE     ---       #298
      010013ACH   LINE      CODE     ---       #300
      010013AFH   LINE      CODE     ---       #301
      010013B3H   LINE      CODE     ---       #302
      010013B5H   LINE      CODE     ---       #303
      010013B5H   LINE      CODE     ---       #304
      010013B7H   LINE      CODE     ---       #306
      010013B7H   LINE      CODE     ---       #307
      010013C0H   LINE      CODE     ---       #308
      010013C3H   LINE      CODE     ---       #309
      010013C7H   LINE      CODE     ---       #312
      010013D3H   LINE      CODE     ---       #313
      010013D8H   LINE      CODE     ---       #314
      010013D9H   LINE      CODE     ---       #315
      010013DDH   LINE      CODE     ---       #316
      010013DDH   LINE      CODE     ---       #317
      010013DDH   LINE      CODE     ---       #318
      010013DEH   LINE      CODE     ---       #320
      010013DEH   LINE      CODE     ---       #321
      010013EBH   LINE      CODE     ---       #323
      010013F1H   LINE      CODE     ---       #324
      010013F4H   LINE      CODE     ---       #325
      010013F7H   LINE      CODE     ---       #326
      010013F7H   LINE      CODE     ---       #327
      010013F8H   LINE      CODE     ---       #329
      010013F8H   LINE      CODE     ---       #331
LX51 LINKER/LOCATER V4.66.97.0                                                        02/10/2023  14:24:31  PAGE 73


      010013FCH   LINE      CODE     ---       #332
      01001401H   LINE      CODE     ---       #333
      01001404H   LINE      CODE     ---       #334
      01001408H   LINE      CODE     ---       #335
      01001408H   LINE      CODE     ---       #336
      ---         BLOCKEND  ---      ---       LVL=0

      010016E7H   BLOCK     CODE     ---       LVL=0
      010016E7H   LINE      CODE     ---       #339
      010016E7H   LINE      CODE     ---       #340
      010016E7H   LINE      CODE     ---       #341
      010016F1H   LINE      CODE     ---       #342
      010016F1H   LINE      CODE     ---       #343
      01001701H   LINE      CODE     ---       #344
      01001706H   LINE      CODE     ---       #345
      0100170FH   LINE      CODE     ---       #346
      01001713H   LINE      CODE     ---       #347
      01001717H   LINE      CODE     ---       #348
      01001717H   LINE      CODE     ---       #349
      01001719H   LINE      CODE     ---       #351
      01001719H   LINE      CODE     ---       #352
      0100172AH   LINE      CODE     ---       #353
      01001733H   LINE      CODE     ---       #354
      01001737H   LINE      CODE     ---       #355
      0100173BH   LINE      CODE     ---       #358
      0100173BH   LINE      CODE     ---       #359
      0100173BH   LINE      CODE     ---       #360
      0100173DH   LINE      CODE     ---       #362
      0100173DH   LINE      CODE     ---       #363
      01001740H   LINE      CODE     ---       #364
      01001740H   LINE      CODE     ---       #366
      ---         BLOCKEND  ---      ---       LVL=0

      ---         MODULE    ---      ---       PARAM
      02000081H   PUBLIC    PDATA    WORD      PARAM_bulkMv
      0200007FH   PUBLIC    PDATA    WORD      PARAM_floatMv
      0200007DH   PUBLIC    PDATA    WORD      PARAM_pwrOnMv
      00000022H.6 PUBLIC    BIT      BIT       PARAM_battIsLeadAcid
      0200007BH   PUBLIC    PDATA    WORD      PARAM_pwrOffMv
      01001C51H   PUBLIC    CODE     ---       __PARAM_ValidateNewValue
      01001F43H   PUBLIC    CODE     ---       PARAM_GetPwrOnMv
      01001F3AH   PUBLIC    CODE     ---       PARAM_GetPwrOffMv
      01001F31H   PUBLIC    CODE     ---       PARAM_GetFloatMv
      01001F28H   PUBLIC    CODE     ---       PARAM_GetBulkMv
      01001AFFH   PUBLIC    CODE     ---       _PARAM_GetIndexedValue
      01001478H   PUBLIC    CODE     ---       _PARAM_SetIndexedValue
      010019A6H   PUBLIC    CODE     ---       PARAM_Init
      000000A2H   SFRSYM    DATA     BYTE      SPI0CKR
      00000080H   SFRSYM    DATA     BYTE      P0
      000000D0H.2 SFRSYM    DATA     BIT       PSW_OV
      000000B1H   SFRSYM    DATA     BYTE      XOSC0CN
      00000090H   SFRSYM    DATA     BYTE      P1
      000000A0H   SFRSYM    DATA     BYTE      P2
      00000097H   SFRSYM    DATA     BYTE      ADC0CF
      000000C0H.7 SFRSYM    DATA     BIT       SMB0CN0_MASTER
      000000F9H   SFRSYM    DATA     WORD      PCA0
      000000AEH   SFRSYM    DATA     BYTE      RTC0KEY
      000000E6H   SFRSYM    DATA     BYTE      EIE1
      000000C0H.1 SFRSYM    DATA     BIT       SMB0CN0_ACK
      000000E7H   SFRSYM    DATA     BYTE      EIE2
      0000008FH   SFRSYM    DATA     BYTE      PSCTL
      000000E4H   SFRSYM    DATA     BYTE      IT01CF
LX51 LINKER/LOCATER V4.66.97.0                                                        02/10/2023  14:24:31  PAGE 74


      000000B0H   SFRSYM    DATA     BYTE      CS0CN0
      000000C0H.6 SFRSYM    DATA     BIT       SMB0CN0_TXMODE
      000000E3H   SFRSYM    DATA     BYTE      DERIVID
      000000AFH   SFRSYM    DATA     BYTE      CS0MD1
      000000A7H   SFRSYM    DATA     BYTE      SFRPAGE
      000000F3H   SFRSYM    DATA     BYTE      CS0MD2
      000000A4H   SFRSYM    DATA     BYTE      P0MDOUT
      000000F3H   SFRSYM    DATA     BYTE      CS0MD3
      000000A5H   SFRSYM    DATA     BYTE      P1MDOUT
      000000E8H.5 SFRSYM    DATA     BIT       ADC0CN0_ADINT
      000000CBH   SFRSYM    DATA     BYTE      TMR2RLH
      000000A6H   SFRSYM    DATA     BYTE      P2MDOUT
      000000A8H   SFRSYM    DATA     BYTE      IE
      00000093H   SFRSYM    DATA     BYTE      TMR3RLH
      000000F6H   SFRSYM    DATA     BYTE      EIP1
      000000F7H   SFRSYM    DATA     BYTE      EIP2
      00000098H.2 SFRSYM    DATA     BIT       SCON0_RB8
      000000CAH   SFRSYM    DATA     BYTE      TMR2RLL
      000000FCH   SFRSYM    DATA     BYTE      PCA0CPH0
      00000092H   SFRSYM    DATA     BYTE      TMR3RLL
      000000EAH   SFRSYM    DATA     BYTE      PCA0CPH1
      00000098H.3 SFRSYM    DATA     BIT       SCON0_TB8
      000000B0H.7 SFRSYM    DATA     BIT       CS0CN0_CSEN
      000000F0H.0 SFRSYM    DATA     BIT       B_B0
      00000082H   SFRSYM    DATA     WORD      DP
      000000ECH   SFRSYM    DATA     BYTE      PCA0CPH2
      000000F0H.1 SFRSYM    DATA     BIT       B_B1
      000000C3H   SFRSYM    DATA     WORD      ADC0GT
      000000F0H.2 SFRSYM    DATA     BIT       B_B2
      000000FBH   SFRSYM    DATA     BYTE      PCA0CPL0
      000000F0H.3 SFRSYM    DATA     BIT       B_B3
      000000D9H   SFRSYM    DATA     BYTE      PCA0MD
      000000DAH   SFRSYM    DATA     BYTE      PCA0CPM0
      000000E9H   SFRSYM    DATA     BYTE      PCA0CPL1
      000000F0H.4 SFRSYM    DATA     BIT       B_B4
      000000DBH   SFRSYM    DATA     BYTE      PCA0CPM1
      000000EBH   SFRSYM    DATA     BYTE      PCA0CPL2
      000000F0H.5 SFRSYM    DATA     BIT       B_B5
      000000DCH   SFRSYM    DATA     BYTE      PCA0CPM2
      000000B8H   SFRSYM    DATA     BYTE      IP
      000000BCH   SFRSYM    DATA     BYTE      ADC0TK
      000000F0H.6 SFRSYM    DATA     BIT       B_B6
      000000C5H   SFRSYM    DATA     WORD      ADC0LT
      000000D6H   SFRSYM    DATA     BYTE      IREF0CN0
      00000098H.5 SFRSYM    DATA     BIT       SCON0_MCE
      000000F0H.7 SFRSYM    DATA     BIT       B_B7
      000000E1H   SFRSYM    DATA     BYTE      XBR0
      000000C1H   SFRSYM    DATA     BYTE      SMB0CF
      000000E2H   SFRSYM    DATA     BYTE      XBR1
      000000D2H   SFRSYM    DATA     BYTE      CS0SCAN0
      000000C0H.5 SFRSYM    DATA     BIT       SMB0CN0_STA
      000000E3H   SFRSYM    DATA     BYTE      XBR2
      000000D3H   SFRSYM    DATA     BYTE      CS0SCAN1
      00000096H   SFRSYM    DATA     BYTE      ADC0MX
      000000E0H.0 SFRSYM    DATA     BIT       ACC_ACC0
      000000D1H   SFRSYM    DATA     BYTE      REF0CN
      000000B2H   SFRSYM    DATA     BYTE      HFO0CN
      0000008EH   SFRSYM    DATA     BYTE      CKCON0
      000000E0H.1 SFRSYM    DATA     BIT       ACC_ACC1
      000000C9H   SFRSYM    DATA     BYTE      REG0CN
      00000085H   SFRSYM    DATA     BYTE      CRC0IN
      000000C8H.2 SFRSYM    DATA     BIT       TMR2CN0_TR2
LX51 LINKER/LOCATER V4.66.97.0                                                        02/10/2023  14:24:31  PAGE 75


      000000E0H.2 SFRSYM    DATA     BIT       ACC_ACC2
      000000E0H.3 SFRSYM    DATA     BIT       ACC_ACC3
      00000081H   SFRSYM    DATA     BYTE      SP
      0000009DH   SFRSYM    DATA     BYTE      CMP0MD
      000000E0H.4 SFRSYM    DATA     BIT       ACC_ACC4
      000000D8H.0 SFRSYM    DATA     BIT       PCA0CN0_CCF0
      000000E0H.5 SFRSYM    DATA     BIT       ACC_ACC5
      000000D8H.1 SFRSYM    DATA     BIT       PCA0CN0_CCF1
      000000E0H.6 SFRSYM    DATA     BIT       ACC_ACC6
      000000CCH   SFRSYM    DATA     WORD      TMR2
      000000D8H.2 SFRSYM    DATA     BIT       PCA0CN0_CCF2
      000000E0H.7 SFRSYM    DATA     BIT       ACC_ACC7
      00000094H   SFRSYM    DATA     WORD      TMR3
      000000B0H.0 SFRSYM    DATA     BIT       CS0CN0_CSCMPF
      000000C0H.3 SFRSYM    DATA     BIT       SMB0CN0_ACKRQ
      000000FFH   SFRSYM    DATA     BYTE      VDM0CN
      000000F1H   SFRSYM    DATA     BYTE      P0MDIN
      00000098H.4 SFRSYM    DATA     BIT       SCON0_REN
      000000F2H   SFRSYM    DATA     BYTE      P1MDIN
      000000FEH   SFRSYM    DATA     BYTE      CS0THH
      000000C0H.4 SFRSYM    DATA     BIT       SMB0CN0_STO
      000000B5H   SFRSYM    DATA     BYTE      PMU0CF
      000000C7H   SFRSYM    DATA     BYTE      P0MASK
      000000BFH   SFRSYM    DATA     BYTE      P1MASK
      000000FDH   SFRSYM    DATA     BYTE      CS0THL
      000000D0H.3 SFRSYM    DATA     BIT       PSW_RS0
      000000D8H.7 SFRSYM    DATA     BIT       PCA0CN0_CF
      000000F8H.4 SFRSYM    DATA     BIT       SPI0CN0_RXOVRN
      000000D0H.4 SFRSYM    DATA     BIT       PSW_RS1
      000000C8H.0 SFRSYM    DATA     BIT       TMR2CN0_T2XCLK0
      000000C8H.1 SFRSYM    DATA     BIT       TMR2CN0_T2XCLK1
      000000E8H.7 SFRSYM    DATA     BIT       ADC0CN0_ADEN
      00000089H   SFRSYM    DATA     BYTE      TMOD
      00000088H   SFRSYM    DATA     BYTE      TCON
      000000B5H   SFRSYM    DATA     BYTE      PMU0MD
      000000CEH   SFRSYM    DATA     BYTE      PMU0FL
      0000009CH   SFRSYM    DATA     BYTE      CRC0FLIP
      000000D0H.0 SFRSYM    DATA     BIT       PSW_PARITY
      000000A8H.4 SFRSYM    DATA     BIT       IE_ES0
      0000009FH   SFRSYM    DATA     BYTE      CMP0MX
      000000A8H.1 SFRSYM    DATA     BIT       IE_ET0
      000000A8H.3 SFRSYM    DATA     BIT       IE_ET1
      000000D4H   SFRSYM    DATA     BYTE      P0SKIP
      000000A8H.5 SFRSYM    DATA     BIT       IE_ET2
      000000D5H   SFRSYM    DATA     BYTE      P1SKIP
      000000E8H   SFRSYM    DATA     BYTE      ADC0CN0
      000000A8H.0 SFRSYM    DATA     BIT       IE_EX0
      000000D8H.6 SFRSYM    DATA     BIT       PCA0CN0_CR
      000000A8H.2 SFRSYM    DATA     BIT       IE_EX1
      00000098H.7 SFRSYM    DATA     BIT       SCON0_SMODE
      000000A9H   SFRSYM    DATA     BYTE      CLKSEL
      000000F8H.0 SFRSYM    DATA     BIT       SPI0CN0_SPIEN
      000000F0H   SFRSYM    DATA     BYTE      B
      000000BEH   SFRSYM    DATA     BYTE      ADC0H
      0000009EH   SFRSYM    DATA     BYTE      CRC0AUTO
      000000B0H.4 SFRSYM    DATA     BIT       CS0CN0_CSBUSY
      000000E8H.6 SFRSYM    DATA     BIT       ADC0CN0_ADBMEN
      000000CAH   SFRSYM    DATA     WORD      TMR2RL
      000000BDH   SFRSYM    DATA     BYTE      ADC0L
      00000092H   SFRSYM    DATA     WORD      TMR3RL
      000000D8H   SFRSYM    DATA     BYTE      PCA0CN0
      000000E0H   SFRSYM    DATA     BYTE      ACC
LX51 LINKER/LOCATER V4.66.97.0                                                        02/10/2023  14:24:31  PAGE 76


      000000FBH   SFRSYM    DATA     WORD      PCA0CP0
      000000E9H   SFRSYM    DATA     WORD      PCA0CP1
      000000EBH   SFRSYM    DATA     WORD      PCA0CP2
      00000084H   SFRSYM    DATA     BYTE      CRC0CN0
      0000008CH   SFRSYM    DATA     BYTE      TH0
      000000B8H.4 SFRSYM    DATA     BIT       IP_PS0
      0000008DH   SFRSYM    DATA     BYTE      TH1
      000000FAH   SFRSYM    DATA     BYTE      PCA0H
      000000B8H.1 SFRSYM    DATA     BIT       IP_PT0
      000000B8H.3 SFRSYM    DATA     BIT       IP_PT1
      000000C0H.2 SFRSYM    DATA     BIT       SMB0CN0_ARBLOST
      000000B8H.5 SFRSYM    DATA     BIT       IP_PT2
      0000008AH   SFRSYM    DATA     BYTE      TL0
      000000AAH   SFRSYM    DATA     BYTE      CS0CF
      000000F8H.1 SFRSYM    DATA     BIT       SPI0CN0_TXBMT
      000000D0H.5 SFRSYM    DATA     BIT       PSW_F0
      000000A8H.6 SFRSYM    DATA     BIT       IE_ESPI0
      0000008BH   SFRSYM    DATA     BYTE      TL1
      000000F9H   SFRSYM    DATA     BYTE      PCA0L
      000000C0H.0 SFRSYM    DATA     BIT       SMB0CN0_SI
      000000D0H.1 SFRSYM    DATA     BIT       PSW_F1
      00000080H.0 SFRSYM    DATA     BIT       P0_B0
      000000B8H.0 SFRSYM    DATA     BIT       IP_PX0
      00000090H.0 SFRSYM    DATA     BIT       P1_B0
      00000080H.1 SFRSYM    DATA     BIT       P0_B1
      000000B8H.2 SFRSYM    DATA     BIT       IP_PX1
      000000EEH   SFRSYM    DATA     BYTE      CS0DH
      0000009BH   SFRSYM    DATA     BYTE      CMP0CN0
      00000088H.1 SFRSYM    DATA     BIT       TCON_IE0
      00000090H.1 SFRSYM    DATA     BIT       P1_B1
      00000080H.2 SFRSYM    DATA     BIT       P0_B2
      00000088H.3 SFRSYM    DATA     BIT       TCON_IE1
      00000090H.2 SFRSYM    DATA     BIT       P1_B2
      00000080H.3 SFRSYM    DATA     BIT       P0_B3
      000000C0H   SFRSYM    DATA     BYTE      SMB0CN0
      00000090H.3 SFRSYM    DATA     BIT       P1_B3
      00000080H.4 SFRSYM    DATA     BIT       P0_B4
      00000090H.4 SFRSYM    DATA     BIT       P1_B4
      00000080H.5 SFRSYM    DATA     BIT       P0_B5
      000000EDH   SFRSYM    DATA     BYTE      CS0DL
      00000090H.5 SFRSYM    DATA     BIT       P1_B5
      00000080H.6 SFRSYM    DATA     BIT       P0_B6
      00000090H.6 SFRSYM    DATA     BIT       P1_B6
      00000080H.7 SFRSYM    DATA     BIT       P0_B7
      00000090H.7 SFRSYM    DATA     BIT       P1_B7
      000000A0H.7 SFRSYM    DATA     BIT       P2_B7
      00000083H   SFRSYM    DATA     BYTE      DPH
      000000C4H   SFRSYM    DATA     BYTE      ADC0GTH
      000000C8H.7 SFRSYM    DATA     BIT       TMR2CN0_TF2H
      000000C8H.3 SFRSYM    DATA     BIT       TMR2CN0_T2SPLIT
      000000D0H.6 SFRSYM    DATA     BIT       PSW_AC
      000000F8H   SFRSYM    DATA     BYTE      SPI0CN0
      000000B3H   SFRSYM    DATA     BYTE      HFO0CAL
      000000DEH   SFRSYM    DATA     BYTE      CS0SE
      00000088H.5 SFRSYM    DATA     BIT       TCON_TF0
      00000098H.0 SFRSYM    DATA     BIT       SCON0_RI
      00000082H   SFRSYM    DATA     BYTE      DPL
      00000088H.7 SFRSYM    DATA     BIT       TCON_TF1
      00000099H   SFRSYM    DATA     BYTE      SBUF0
      00000087H   SFRSYM    DATA     BYTE      PCON0
      000000B9H   SFRSYM    DATA     BYTE      IREF0CF
      000000C3H   SFRSYM    DATA     BYTE      ADC0GTL
LX51 LINKER/LOCATER V4.66.97.0                                                        02/10/2023  14:24:31  PAGE 77


      000000C8H.6 SFRSYM    DATA     BIT       TMR2CN0_TF2L
      00000098H.1 SFRSYM    DATA     BIT       SCON0_TI
      000000E8H.0 SFRSYM    DATA     BIT       ADC0CN0_ADCM0
      000000C6H   SFRSYM    DATA     BYTE      ADC0LTH
      00000088H.0 SFRSYM    DATA     BIT       TCON_IT0
      000000B0H.1 SFRSYM    DATA     BIT       CS0CN0_CSPME
      000000E8H.1 SFRSYM    DATA     BIT       ADC0CN0_ADCM1
      000000EFH   SFRSYM    DATA     BYTE      RSTSRC
      000000D7H   SFRSYM    DATA     BYTE      P0MAT
      00000086H   SFRSYM    DATA     BYTE      CRC0DAT
      00000088H.2 SFRSYM    DATA     BIT       TCON_IT1
      000000E8H.2 SFRSYM    DATA     BIT       ADC0CN0_ADCM2
      00000098H   SFRSYM    DATA     BYTE      SCON0
      000000CFH   SFRSYM    DATA     BYTE      P1MAT
      000000DEH   SFRSYM    DATA     BYTE      CS0PM
      000000E8H.3 SFRSYM    DATA     BIT       ADC0CN0_ADWINT
      000000E8H.4 SFRSYM    DATA     BIT       ADC0CN0_ADBUSY
      000000F5H   SFRSYM    DATA     BYTE      SMB0ADM
      000000C5H   SFRSYM    DATA     BYTE      ADC0LTL
      000000F8H.5 SFRSYM    DATA     BIT       SPI0CN0_MODF
      000000B8H.6 SFRSYM    DATA     BIT       IP_PSPI0
      000000B0H.6 SFRSYM    DATA     BIT       CS0CN0_CSEOS
      000000C8H   SFRSYM    DATA     BYTE      TMR2CN0
      00000091H   SFRSYM    DATA     BYTE      TMR3CN0
      000000F4H   SFRSYM    DATA     BYTE      SMB0ADR
      00000088H.4 SFRSYM    DATA     BIT       TCON_TR0
      000000B0H.5 SFRSYM    DATA     BIT       CS0CN0_CSINT
      000000ABH   SFRSYM    DATA     BYTE      CS0MX
      000000C8H.4 SFRSYM    DATA     BIT       TMR2CN0_TF2CEN
      00000088H.6 SFRSYM    DATA     BIT       TCON_TR1
      000000C2H   SFRSYM    DATA     BYTE      SMB0DAT
      00000099H   SFRSYM    DATA     BYTE      P0DRV
      000000DDH   SFRSYM    DATA     BYTE      CS0SS
      00000080H.0 SFRSYM    DATA     BIT       AUX
      000000CDH   SFRSYM    DATA     BYTE      TMR2H
      000000A1H   SFRSYM    DATA     BYTE      SPI0CFG
      0000009BH   SFRSYM    DATA     BYTE      P1DRV
      00000095H   SFRSYM    DATA     BYTE      TMR3H
      0000009DH   SFRSYM    DATA     BYTE      P2DRV
      0000009AH   SFRSYM    DATA     BYTE      CRC0CNT
      00000090H.7 SFRSYM    DATA     BIT       IO_BATT_TYPE_I
      000000CCH   SFRSYM    DATA     BYTE      TMR2L
      000000ACH   SFRSYM    DATA     BYTE      RTC0ADR
      000000F8H.7 SFRSYM    DATA     BIT       SPI0CN0_SPIF
      00000094H   SFRSYM    DATA     BYTE      TMR3L
      000000BBH   SFRSYM    DATA     BYTE      ADC0PWR
      000000A8H.7 SFRSYM    DATA     BIT       IE_EA
      000000ADH   SFRSYM    DATA     BYTE      RTC0DAT
      000000B0H.3 SFRSYM    DATA     BIT       CS0CN0_CSCMPEN
      000000B6H   SFRSYM    DATA     BYTE      FLSCL
      000000C8H.5 SFRSYM    DATA     BIT       TMR2CN0_TF2LEN
      000000F8H.6 SFRSYM    DATA     BIT       SPI0CN0_WCOL
      000000F8H.2 SFRSYM    DATA     BIT       SPI0CN0_NSSMD0
      000000D0H.7 SFRSYM    DATA     BIT       PSW_CY
      000000A3H   SFRSYM    DATA     BYTE      SPI0DAT
      000000F8H.3 SFRSYM    DATA     BIT       SPI0CN0_NSSMD1
      000000BDH   SFRSYM    DATA     WORD      ADC0
      0000008EH   SFRSYM    DATA     BYTE      TOFFH
      000000D0H   SFRSYM    DATA     BYTE      PSW
      000000DFH   SFRSYM    DATA     BYTE      PCA0PWM
      000000E2H   SFRSYM    DATA     BYTE      REVID
      0000008DH   SFRSYM    DATA     BYTE      TOFFL
LX51 LINKER/LOCATER V4.66.97.0                                                        02/10/2023  14:24:31  PAGE 78


      000000B7H   SFRSYM    DATA     BYTE      FLKEY
      000000BAH   SFRSYM    DATA     BYTE      ADC0AC

      01001F4CH   BLOCK     CODE     ---       LVL=0
      ---         BLOCKEND  ---      ---       LVL=0

      010019A6H   BLOCK     CODE     ---       LVL=0
      010019A6H   LINE      CODE     ---       #55
      010019A6H   LINE      CODE     ---       #57
      010019AAH   LINE      CODE     ---       #60
      010019AFH   LINE      CODE     ---       #61
      010019B6H   LINE      CODE     ---       #62
      010019BFH   LINE      CODE     ---       #63
      010019C1H   LINE      CODE     ---       #64
      010019C8H   LINE      CODE     ---       #65
      010019D1H   LINE      CODE     ---       #66
      010019D1H   LINE      CODE     ---       #67
      010019DAH   LINE      CODE     ---       #68
      010019E3H   LINE      CODE     ---       #69
      ---         BLOCKEND  ---      ---       LVL=0

      01001478H   BLOCK     CODE     ---       LVL=0
      00000007H   SYMBOL    DATA     BYTE      index
      02000043H   SYMBOL    PDATA    WORD      val
      01001478H   LINE      CODE     ---       #75
      0100147FH   LINE      CODE     ---       #76
      0100147FH   LINE      CODE     ---       #77
      0100148DH   LINE      CODE     ---       #78
      0100148DH   LINE      CODE     ---       #79
      01001496H   LINE      CODE     ---       #80
      01001498H   LINE      CODE     ---       #81
      01001498H   LINE      CODE     ---       #82
      010014ACH   LINE      CODE     ---       #83
      010014AEH   LINE      CODE     ---       #84
      010014AEH   LINE      CODE     ---       #85
      010014C5H   LINE      CODE     ---       #86
      010014C7H   LINE      CODE     ---       #87
      010014C7H   LINE      CODE     ---       #88
      010014D5H   LINE      CODE     ---       #89
      010014D5H   LINE      CODE     ---       #90
      010014D5H   LINE      CODE     ---       #91
      ---         BLOCKEND  ---      ---       LVL=0

      01001AFFH   BLOCK     CODE     ---       LVL=0
      00000007H   SYMBOL    DATA     BYTE      index
      01001AFFH   BLOCK     CODE     NEAR LAB  LVL=1
      00000004H   SYMBOL    DATA     WORD      v
      ---         BLOCKEND  ---      ---       LVL=1
      01001AFFH   LINE      CODE     ---       #94
      01001AFFH   LINE      CODE     ---       #95
      01001AFFH   LINE      CODE     ---       #96
      01001B02H   LINE      CODE     ---       #98
      01001B10H   LINE      CODE     ---       #99
      01001B10H   LINE      CODE     ---       #100
      01001B12H   LINE      CODE     ---       #101
      01001B14H   LINE      CODE     ---       #102
      01001B14H   LINE      CODE     ---       #103
      01001B16H   LINE      CODE     ---       #104
      01001B18H   LINE      CODE     ---       #105
      01001B18H   LINE      CODE     ---       #106
      01001B1AH   LINE      CODE     ---       #107
      01001B1CH   LINE      CODE     ---       #108
LX51 LINKER/LOCATER V4.66.97.0                                                        02/10/2023  14:24:31  PAGE 79


      01001B1CH   LINE      CODE     ---       #109
      01001B23H   LINE      CODE     ---       #110
      01001B23H   LINE      CODE     ---       #111
      01001B23H   LINE      CODE     ---       #113
      01001B27H   LINE      CODE     ---       #114
      ---         BLOCKEND  ---      ---       LVL=0

      01001F28H   BLOCK     CODE     ---       LVL=0
      01001F28H   BLOCK     CODE     NEAR LAB  LVL=1
      00000006H   SYMBOL    DATA     WORD      v
      ---         BLOCKEND  ---      ---       LVL=1
      01001F28H   LINE      CODE     ---       #120
      01001F28H   LINE      CODE     ---       #121
      01001F28H   LINE      CODE     ---       #125
      01001F2BH   LINE      CODE     ---       #126
      01001F2DH   LINE      CODE     ---       #127
      01001F30H   LINE      CODE     ---       #129
      01001F30H   LINE      CODE     ---       #130
      ---         BLOCKEND  ---      ---       LVL=0

      01001F31H   BLOCK     CODE     ---       LVL=0
      01001F31H   BLOCK     CODE     NEAR LAB  LVL=1
      00000006H   SYMBOL    DATA     WORD      v
      ---         BLOCKEND  ---      ---       LVL=1
      01001F31H   LINE      CODE     ---       #133
      01001F31H   LINE      CODE     ---       #134
      01001F31H   LINE      CODE     ---       #138
      01001F34H   LINE      CODE     ---       #139
      01001F36H   LINE      CODE     ---       #140
      01001F39H   LINE      CODE     ---       #142
      01001F39H   LINE      CODE     ---       #143
      ---         BLOCKEND  ---      ---       LVL=0

      01001F3AH   BLOCK     CODE     ---       LVL=0
      01001F3AH   BLOCK     CODE     NEAR LAB  LVL=1
      00000006H   SYMBOL    DATA     WORD      v
      ---         BLOCKEND  ---      ---       LVL=1
      01001F3AH   LINE      CODE     ---       #146
      01001F3AH   LINE      CODE     ---       #147
      01001F3AH   LINE      CODE     ---       #151
      01001F3DH   LINE      CODE     ---       #152
      01001F3FH   LINE      CODE     ---       #153
      01001F42H   LINE      CODE     ---       #155
      01001F42H   LINE      CODE     ---       #156
      ---         BLOCKEND  ---      ---       LVL=0

      01001F43H   BLOCK     CODE     ---       LVL=0
      01001F43H   BLOCK     CODE     NEAR LAB  LVL=1
      00000006H   SYMBOL    DATA     WORD      v
      ---         BLOCKEND  ---      ---       LVL=1
      01001F43H   LINE      CODE     ---       #159
      01001F43H   LINE      CODE     ---       #160
      01001F43H   LINE      CODE     ---       #164
      01001F46H   LINE      CODE     ---       #165
      01001F48H   LINE      CODE     ---       #166
      01001F4BH   LINE      CODE     ---       #168
      01001F4BH   LINE      CODE     ---       #169
      ---         BLOCKEND  ---      ---       LVL=0

      01001C51H   BLOCK     CODE     ---       LVL=0
      00000006H   SYMBOL    DATA     WORD      val
      02000045H   SYMBOL    PDATA    WORD      min
LX51 LINKER/LOCATER V4.66.97.0                                                        02/10/2023  14:24:31  PAGE 80


      00000002H   SYMBOL    DATA     WORD      max
      01001C51H   LINE      CODE     ---       #176
      01001C58H   LINE      CODE     ---       #177
      01001C58H   LINE      CODE     ---       #178
      01001C60H   LINE      CODE     ---       #179
      01001C66H   LINE      CODE     ---       #180
      01001C6DH   LINE      CODE     ---       #181
      01001C72H   LINE      CODE     ---       #182
      01001C72H   LINE      CODE     ---       #183
      01001C72H   LINE      CODE     ---       #184
      01001C72H   LINE      CODE     ---       #185
      ---         BLOCKEND  ---      ---       LVL=0

      ---         MODULE    ---      ---       POWER
      00000020H.6 PUBLIC    BIT      BIT       POWER_watchdogTriggered
      00000020H.5 PUBLIC    BIT      BIT       POWER_watchdogGlobalEnable
      02000088H   PUBLIC    PDATA    BYTE      POWER_watchdogCount
      00000020H.4 PUBLIC    BIT      BIT       POWER_powerEnabled
      00000020H.3 PUBLIC    BIT      BIT       POWER_isNight
      00000020H.2 PUBLIC    BIT      BIT       POWER_watchdogCountWritten
      02000086H   PUBLIC    PDATA    WORD      POWER_watchdogPwrOffTO
      02000084H   PUBLIC    PDATA    WORD      POWER_offCount
      00000020H.1 PUBLIC    BIT      BIT       POWER_badBatt
      02000083H   PUBLIC    PDATA    BYTE      POWER_state
      00000020H.0 PUBLIC    BIT      BIT       POWER_enableAtNight
      01001F55H   PUBLIC    CODE     ---       _POWER_DisableWatchdog
      01001F1EH   PUBLIC    CODE     ---       POWER_WatchdogRunning
      01001E41H   PUBLIC    CODE     ---       _POWER_SetWatchdogPwrOffTO
      01001E84H   PUBLIC    CODE     ---       _POWER_SetWatchdogTimeout
      00000021H.6 PUBLIC    BIT      BIT       ?POWER_EnableWatchdog?BIT
      01001E76H   PUBLIC    CODE     ---       POWER_EnableWatchdog
      0100050CH   PUBLIC    CODE     ---       POWER_Update
      0100131CH   PUBLIC    CODE     ---       POWER_Init
      000000A2H   SFRSYM    DATA     BYTE      SPI0CKR
      00000080H   SFRSYM    DATA     BYTE      P0
      000000D0H.2 SFRSYM    DATA     BIT       PSW_OV
      000000B1H   SFRSYM    DATA     BYTE      XOSC0CN
      00000090H   SFRSYM    DATA     BYTE      P1
      000000A0H   SFRSYM    DATA     BYTE      P2
      00000097H   SFRSYM    DATA     BYTE      ADC0CF
      000000C0H.7 SFRSYM    DATA     BIT       SMB0CN0_MASTER
      000000F9H   SFRSYM    DATA     WORD      PCA0
      000000AEH   SFRSYM    DATA     BYTE      RTC0KEY
      000000E6H   SFRSYM    DATA     BYTE      EIE1
      000000C0H.1 SFRSYM    DATA     BIT       SMB0CN0_ACK
      000000E7H   SFRSYM    DATA     BYTE      EIE2
      0000008FH   SFRSYM    DATA     BYTE      PSCTL
      000000E4H   SFRSYM    DATA     BYTE      IT01CF
      000000B0H   SFRSYM    DATA     BYTE      CS0CN0
      000000C0H.6 SFRSYM    DATA     BIT       SMB0CN0_TXMODE
      000000E3H   SFRSYM    DATA     BYTE      DERIVID
      000000AFH   SFRSYM    DATA     BYTE      CS0MD1
      000000A7H   SFRSYM    DATA     BYTE      SFRPAGE
      000000F3H   SFRSYM    DATA     BYTE      CS0MD2
      000000A4H   SFRSYM    DATA     BYTE      P0MDOUT
      000000F3H   SFRSYM    DATA     BYTE      CS0MD3
      000000A5H   SFRSYM    DATA     BYTE      P1MDOUT
      000000E8H.5 SFRSYM    DATA     BIT       ADC0CN0_ADINT
      000000CBH   SFRSYM    DATA     BYTE      TMR2RLH
      000000A6H   SFRSYM    DATA     BYTE      P2MDOUT
      000000A8H   SFRSYM    DATA     BYTE      IE
      00000093H   SFRSYM    DATA     BYTE      TMR3RLH
LX51 LINKER/LOCATER V4.66.97.0                                                        02/10/2023  14:24:31  PAGE 81


      000000F6H   SFRSYM    DATA     BYTE      EIP1
      000000F7H   SFRSYM    DATA     BYTE      EIP2
      00000098H.2 SFRSYM    DATA     BIT       SCON0_RB8
      000000CAH   SFRSYM    DATA     BYTE      TMR2RLL
      000000FCH   SFRSYM    DATA     BYTE      PCA0CPH0
      00000092H   SFRSYM    DATA     BYTE      TMR3RLL
      000000EAH   SFRSYM    DATA     BYTE      PCA0CPH1
      00000098H.3 SFRSYM    DATA     BIT       SCON0_TB8
      000000B0H.7 SFRSYM    DATA     BIT       CS0CN0_CSEN
      000000F0H.0 SFRSYM    DATA     BIT       B_B0
      00000082H   SFRSYM    DATA     WORD      DP
      000000ECH   SFRSYM    DATA     BYTE      PCA0CPH2
      000000F0H.1 SFRSYM    DATA     BIT       B_B1
      000000C3H   SFRSYM    DATA     WORD      ADC0GT
      00000080H.6 SFRSYM    DATA     BIT       IO_PWR_EN_O
      000000F0H.2 SFRSYM    DATA     BIT       B_B2
      000000FBH   SFRSYM    DATA     BYTE      PCA0CPL0
      000000F0H.3 SFRSYM    DATA     BIT       B_B3
      000000D9H   SFRSYM    DATA     BYTE      PCA0MD
      000000DAH   SFRSYM    DATA     BYTE      PCA0CPM0
      000000E9H   SFRSYM    DATA     BYTE      PCA0CPL1
      000000F0H.4 SFRSYM    DATA     BIT       B_B4
      000000DBH   SFRSYM    DATA     BYTE      PCA0CPM1
      000000EBH   SFRSYM    DATA     BYTE      PCA0CPL2
      000000F0H.5 SFRSYM    DATA     BIT       B_B5
      000000DCH   SFRSYM    DATA     BYTE      PCA0CPM2
      000000B8H   SFRSYM    DATA     BYTE      IP
      000000BCH   SFRSYM    DATA     BYTE      ADC0TK
      000000F0H.6 SFRSYM    DATA     BIT       B_B6
      000000C5H   SFRSYM    DATA     WORD      ADC0LT
      000000D6H   SFRSYM    DATA     BYTE      IREF0CN0
      00000098H.5 SFRSYM    DATA     BIT       SCON0_MCE
      000000F0H.7 SFRSYM    DATA     BIT       B_B7
      000000E1H   SFRSYM    DATA     BYTE      XBR0
      000000C1H   SFRSYM    DATA     BYTE      SMB0CF
      000000E2H   SFRSYM    DATA     BYTE      XBR1
      000000D2H   SFRSYM    DATA     BYTE      CS0SCAN0
      000000C0H.5 SFRSYM    DATA     BIT       SMB0CN0_STA
      000000E3H   SFRSYM    DATA     BYTE      XBR2
      000000D3H   SFRSYM    DATA     BYTE      CS0SCAN1
      00000096H   SFRSYM    DATA     BYTE      ADC0MX
      000000E0H.0 SFRSYM    DATA     BIT       ACC_ACC0
      000000D1H   SFRSYM    DATA     BYTE      REF0CN
      000000B2H   SFRSYM    DATA     BYTE      HFO0CN
      0000008EH   SFRSYM    DATA     BYTE      CKCON0
      000000E0H.1 SFRSYM    DATA     BIT       ACC_ACC1
      000000C9H   SFRSYM    DATA     BYTE      REG0CN
      00000085H   SFRSYM    DATA     BYTE      CRC0IN
      000000C8H.2 SFRSYM    DATA     BIT       TMR2CN0_TR2
      000000E0H.2 SFRSYM    DATA     BIT       ACC_ACC2
      000000E0H.3 SFRSYM    DATA     BIT       ACC_ACC3
      00000081H   SFRSYM    DATA     BYTE      SP
      0000009DH   SFRSYM    DATA     BYTE      CMP0MD
      00000080H.7 SFRSYM    DATA     BIT       IO_NIGHT_O
      000000E0H.4 SFRSYM    DATA     BIT       ACC_ACC4
      000000D8H.0 SFRSYM    DATA     BIT       PCA0CN0_CCF0
      000000E0H.5 SFRSYM    DATA     BIT       ACC_ACC5
      000000D8H.1 SFRSYM    DATA     BIT       PCA0CN0_CCF1
      000000E0H.6 SFRSYM    DATA     BIT       ACC_ACC6
      000000CCH   SFRSYM    DATA     WORD      TMR2
      000000D8H.2 SFRSYM    DATA     BIT       PCA0CN0_CCF2
      000000E0H.7 SFRSYM    DATA     BIT       ACC_ACC7
LX51 LINKER/LOCATER V4.66.97.0                                                        02/10/2023  14:24:31  PAGE 82


      00000094H   SFRSYM    DATA     WORD      TMR3
      000000B0H.0 SFRSYM    DATA     BIT       CS0CN0_CSCMPF
      00000090H.5 SFRSYM    DATA     BIT       IO_PCTRL_I
      000000C0H.3 SFRSYM    DATA     BIT       SMB0CN0_ACKRQ
      000000FFH   SFRSYM    DATA     BYTE      VDM0CN
      000000F1H   SFRSYM    DATA     BYTE      P0MDIN
      00000098H.4 SFRSYM    DATA     BIT       SCON0_REN
      000000F2H   SFRSYM    DATA     BYTE      P1MDIN
      000000FEH   SFRSYM    DATA     BYTE      CS0THH
      000000C0H.4 SFRSYM    DATA     BIT       SMB0CN0_STO
      000000B5H   SFRSYM    DATA     BYTE      PMU0CF
      000000C7H   SFRSYM    DATA     BYTE      P0MASK
      000000BFH   SFRSYM    DATA     BYTE      P1MASK
      000000FDH   SFRSYM    DATA     BYTE      CS0THL
      000000D0H.3 SFRSYM    DATA     BIT       PSW_RS0
      000000D8H.7 SFRSYM    DATA     BIT       PCA0CN0_CF
      000000F8H.4 SFRSYM    DATA     BIT       SPI0CN0_RXOVRN
      000000D0H.4 SFRSYM    DATA     BIT       PSW_RS1
      000000C8H.0 SFRSYM    DATA     BIT       TMR2CN0_T2XCLK0
      000000C8H.1 SFRSYM    DATA     BIT       TMR2CN0_T2XCLK1
      000000E8H.7 SFRSYM    DATA     BIT       ADC0CN0_ADEN
      00000089H   SFRSYM    DATA     BYTE      TMOD
      00000088H   SFRSYM    DATA     BYTE      TCON
      000000B5H   SFRSYM    DATA     BYTE      PMU0MD
      000000CEH   SFRSYM    DATA     BYTE      PMU0FL
      0000009CH   SFRSYM    DATA     BYTE      CRC0FLIP
      000000D0H.0 SFRSYM    DATA     BIT       PSW_PARITY
      000000A8H.4 SFRSYM    DATA     BIT       IE_ES0
      0000009FH   SFRSYM    DATA     BYTE      CMP0MX
      000000A8H.1 SFRSYM    DATA     BIT       IE_ET0
      000000A8H.3 SFRSYM    DATA     BIT       IE_ET1
      000000D4H   SFRSYM    DATA     BYTE      P0SKIP
      000000A8H.5 SFRSYM    DATA     BIT       IE_ET2
      000000D5H   SFRSYM    DATA     BYTE      P1SKIP
      000000E8H   SFRSYM    DATA     BYTE      ADC0CN0
      000000A8H.0 SFRSYM    DATA     BIT       IE_EX0
      000000D8H.6 SFRSYM    DATA     BIT       PCA0CN0_CR
      000000A8H.2 SFRSYM    DATA     BIT       IE_EX1
      00000098H.7 SFRSYM    DATA     BIT       SCON0_SMODE
      000000A9H   SFRSYM    DATA     BYTE      CLKSEL
      000000F8H.0 SFRSYM    DATA     BIT       SPI0CN0_SPIEN
      000000F0H   SFRSYM    DATA     BYTE      B
      000000BEH   SFRSYM    DATA     BYTE      ADC0H
      0000009EH   SFRSYM    DATA     BYTE      CRC0AUTO
      000000B0H.4 SFRSYM    DATA     BIT       CS0CN0_CSBUSY
      000000E8H.6 SFRSYM    DATA     BIT       ADC0CN0_ADBMEN
      000000CAH   SFRSYM    DATA     WORD      TMR2RL
      000000BDH   SFRSYM    DATA     BYTE      ADC0L
      00000092H   SFRSYM    DATA     WORD      TMR3RL
      000000D8H   SFRSYM    DATA     BYTE      PCA0CN0
      000000E0H   SFRSYM    DATA     BYTE      ACC
      000000FBH   SFRSYM    DATA     WORD      PCA0CP0
      000000E9H   SFRSYM    DATA     WORD      PCA0CP1
      000000EBH   SFRSYM    DATA     WORD      PCA0CP2
      00000084H   SFRSYM    DATA     BYTE      CRC0CN0
      0000008CH   SFRSYM    DATA     BYTE      TH0
      000000B8H.4 SFRSYM    DATA     BIT       IP_PS0
      0000008DH   SFRSYM    DATA     BYTE      TH1
      000000FAH   SFRSYM    DATA     BYTE      PCA0H
      000000B8H.1 SFRSYM    DATA     BIT       IP_PT0
      000000B8H.3 SFRSYM    DATA     BIT       IP_PT1
      00000090H.0 SFRSYM    DATA     BIT       IO_ALERT_N_O
LX51 LINKER/LOCATER V4.66.97.0                                                        02/10/2023  14:24:31  PAGE 83


      000000C0H.2 SFRSYM    DATA     BIT       SMB0CN0_ARBLOST
      000000B8H.5 SFRSYM    DATA     BIT       IP_PT2
      0000008AH   SFRSYM    DATA     BYTE      TL0
      000000AAH   SFRSYM    DATA     BYTE      CS0CF
      000000F8H.1 SFRSYM    DATA     BIT       SPI0CN0_TXBMT
      000000D0H.5 SFRSYM    DATA     BIT       PSW_F0
      000000A8H.6 SFRSYM    DATA     BIT       IE_ESPI0
      0000008BH   SFRSYM    DATA     BYTE      TL1
      000000F9H   SFRSYM    DATA     BYTE      PCA0L
      000000C0H.0 SFRSYM    DATA     BIT       SMB0CN0_SI
      000000D0H.1 SFRSYM    DATA     BIT       PSW_F1
      00000080H.0 SFRSYM    DATA     BIT       P0_B0
      000000B8H.0 SFRSYM    DATA     BIT       IP_PX0
      00000090H.0 SFRSYM    DATA     BIT       P1_B0
      00000080H.1 SFRSYM    DATA     BIT       P0_B1
      000000B8H.2 SFRSYM    DATA     BIT       IP_PX1
      000000EEH   SFRSYM    DATA     BYTE      CS0DH
      0000009BH   SFRSYM    DATA     BYTE      CMP0CN0
      00000088H.1 SFRSYM    DATA     BIT       TCON_IE0
      00000090H.1 SFRSYM    DATA     BIT       P1_B1
      00000080H.2 SFRSYM    DATA     BIT       P0_B2
      00000088H.3 SFRSYM    DATA     BIT       TCON_IE1
      00000090H.2 SFRSYM    DATA     BIT       P1_B2
      00000080H.3 SFRSYM    DATA     BIT       P0_B3
      000000C0H   SFRSYM    DATA     BYTE      SMB0CN0
      00000090H.3 SFRSYM    DATA     BIT       P1_B3
      00000080H.4 SFRSYM    DATA     BIT       P0_B4
      00000090H.4 SFRSYM    DATA     BIT       P1_B4
      00000080H.5 SFRSYM    DATA     BIT       P0_B5
      000000EDH   SFRSYM    DATA     BYTE      CS0DL
      00000090H.5 SFRSYM    DATA     BIT       P1_B5
      00000080H.6 SFRSYM    DATA     BIT       P0_B6
      00000090H.6 SFRSYM    DATA     BIT       P1_B6
      00000080H.7 SFRSYM    DATA     BIT       P0_B7
      00000090H.7 SFRSYM    DATA     BIT       P1_B7
      000000A0H.7 SFRSYM    DATA     BIT       P2_B7
      00000083H   SFRSYM    DATA     BYTE      DPH
      000000C4H   SFRSYM    DATA     BYTE      ADC0GTH
      000000C8H.7 SFRSYM    DATA     BIT       TMR2CN0_TF2H
      000000C8H.3 SFRSYM    DATA     BIT       TMR2CN0_T2SPLIT
      000000D0H.6 SFRSYM    DATA     BIT       PSW_AC
      000000F8H   SFRSYM    DATA     BYTE      SPI0CN0
      000000B3H   SFRSYM    DATA     BYTE      HFO0CAL
      000000DEH   SFRSYM    DATA     BYTE      CS0SE
      00000088H.5 SFRSYM    DATA     BIT       TCON_TF0
      00000098H.0 SFRSYM    DATA     BIT       SCON0_RI
      00000082H   SFRSYM    DATA     BYTE      DPL
      00000088H.7 SFRSYM    DATA     BIT       TCON_TF1
      00000099H   SFRSYM    DATA     BYTE      SBUF0
      00000087H   SFRSYM    DATA     BYTE      PCON0
      000000B9H   SFRSYM    DATA     BYTE      IREF0CF
      000000C3H   SFRSYM    DATA     BYTE      ADC0GTL
      000000C8H.6 SFRSYM    DATA     BIT       TMR2CN0_TF2L
      00000098H.1 SFRSYM    DATA     BIT       SCON0_TI
      000000E8H.0 SFRSYM    DATA     BIT       ADC0CN0_ADCM0
      000000C6H   SFRSYM    DATA     BYTE      ADC0LTH
      00000088H.0 SFRSYM    DATA     BIT       TCON_IT0
      000000B0H.1 SFRSYM    DATA     BIT       CS0CN0_CSPME
      000000E8H.1 SFRSYM    DATA     BIT       ADC0CN0_ADCM1
      000000EFH   SFRSYM    DATA     BYTE      RSTSRC
      000000D7H   SFRSYM    DATA     BYTE      P0MAT
      00000086H   SFRSYM    DATA     BYTE      CRC0DAT
LX51 LINKER/LOCATER V4.66.97.0                                                        02/10/2023  14:24:31  PAGE 84


      00000088H.2 SFRSYM    DATA     BIT       TCON_IT1
      000000E8H.2 SFRSYM    DATA     BIT       ADC0CN0_ADCM2
      00000098H   SFRSYM    DATA     BYTE      SCON0
      000000CFH   SFRSYM    DATA     BYTE      P1MAT
      000000DEH   SFRSYM    DATA     BYTE      CS0PM
      000000E8H.3 SFRSYM    DATA     BIT       ADC0CN0_ADWINT
      000000E8H.4 SFRSYM    DATA     BIT       ADC0CN0_ADBUSY
      000000F5H   SFRSYM    DATA     BYTE      SMB0ADM
      000000C5H   SFRSYM    DATA     BYTE      ADC0LTL
      000000F8H.5 SFRSYM    DATA     BIT       SPI0CN0_MODF
      000000B8H.6 SFRSYM    DATA     BIT       IP_PSPI0
      000000B0H.6 SFRSYM    DATA     BIT       CS0CN0_CSEOS
      000000C8H   SFRSYM    DATA     BYTE      TMR2CN0
      00000091H   SFRSYM    DATA     BYTE      TMR3CN0
      000000F4H   SFRSYM    DATA     BYTE      SMB0ADR
      00000088H.4 SFRSYM    DATA     BIT       TCON_TR0
      000000B0H.5 SFRSYM    DATA     BIT       CS0CN0_CSINT
      000000ABH   SFRSYM    DATA     BYTE      CS0MX
      000000C8H.4 SFRSYM    DATA     BIT       TMR2CN0_TF2CEN
      00000088H.6 SFRSYM    DATA     BIT       TCON_TR1
      000000C2H   SFRSYM    DATA     BYTE      SMB0DAT
      00000099H   SFRSYM    DATA     BYTE      P0DRV
      000000DDH   SFRSYM    DATA     BYTE      CS0SS
      00000080H.0 SFRSYM    DATA     BIT       AUX
      000000CDH   SFRSYM    DATA     BYTE      TMR2H
      000000A1H   SFRSYM    DATA     BYTE      SPI0CFG
      0000009BH   SFRSYM    DATA     BYTE      P1DRV
      00000095H   SFRSYM    DATA     BYTE      TMR3H
      0000009DH   SFRSYM    DATA     BYTE      P2DRV
      0000009AH   SFRSYM    DATA     BYTE      CRC0CNT
      000000CCH   SFRSYM    DATA     BYTE      TMR2L
      000000ACH   SFRSYM    DATA     BYTE      RTC0ADR
      000000F8H.7 SFRSYM    DATA     BIT       SPI0CN0_SPIF
      00000094H   SFRSYM    DATA     BYTE      TMR3L
      000000BBH   SFRSYM    DATA     BYTE      ADC0PWR
      000000A8H.7 SFRSYM    DATA     BIT       IE_EA
      000000ADH   SFRSYM    DATA     BYTE      RTC0DAT
      000000B0H.3 SFRSYM    DATA     BIT       CS0CN0_CSCMPEN
      000000B6H   SFRSYM    DATA     BYTE      FLSCL
      000000C8H.5 SFRSYM    DATA     BIT       TMR2CN0_TF2LEN
      000000F8H.6 SFRSYM    DATA     BIT       SPI0CN0_WCOL
      000000F8H.2 SFRSYM    DATA     BIT       SPI0CN0_NSSMD0
      000000D0H.7 SFRSYM    DATA     BIT       PSW_CY
      000000A3H   SFRSYM    DATA     BYTE      SPI0DAT
      000000F8H.3 SFRSYM    DATA     BIT       SPI0CN0_NSSMD1
      000000BDH   SFRSYM    DATA     WORD      ADC0
      0000008EH   SFRSYM    DATA     BYTE      TOFFH
      000000D0H   SFRSYM    DATA     BYTE      PSW
      000000DFH   SFRSYM    DATA     BYTE      PCA0PWM
      000000E2H   SFRSYM    DATA     BYTE      REVID
      0000008DH   SFRSYM    DATA     BYTE      TOFFL
      000000B7H   SFRSYM    DATA     BYTE      FLKEY
      000000BAH   SFRSYM    DATA     BYTE      ADC0AC

      01001A7AH   BLOCK     CODE     ---       LVL=0
      ---         BLOCKEND  ---      ---       LVL=0

      0100131CH   BLOCK     CODE     ---       LVL=0
      0100131CH   LINE      CODE     ---       #85
      0100131CH   LINE      CODE     ---       #86
      0100131CH   LINE      CODE     ---       #90
      0100132FH   LINE      CODE     ---       #91
LX51 LINKER/LOCATER V4.66.97.0                                                        02/10/2023  14:24:31  PAGE 85


      01001339H   LINE      CODE     ---       #92
      01001342H   LINE      CODE     ---       #95
      01001344H   LINE      CODE     ---       #96
      01001346H   LINE      CODE     ---       #97
      01001348H   LINE      CODE     ---       #98
      0100134EH   LINE      CODE     ---       #99
      0100134EH   LINE      CODE     ---       #100
      01001351H   LINE      CODE     ---       #103
      01001368H   LINE      CODE     ---       #105
      01001368H   LINE      CODE     ---       #106
      0100136BH   LINE      CODE     ---       #107
      0100136BH   LINE      CODE     ---       #108
      0100136DH   LINE      CODE     ---       #109
      01001373H   LINE      CODE     ---       #111
      01001378H   LINE      CODE     ---       #112
      0100137AH   LINE      CODE     ---       #113
      0100137CH   LINE      CODE     ---       #114
      0100137CH   LINE      CODE     ---       #116
      01001381H   LINE      CODE     ---       #117
      01001383H   LINE      CODE     ---       #118
      01001383H   LINE      CODE     ---       #121
      01001387H   LINE      CODE     ---       #122
      0100138EH   LINE      CODE     ---       #123
      01001395H   LINE      CODE     ---       #124
      ---         BLOCKEND  ---      ---       LVL=0

      0100050CH   BLOCK     CODE     ---       LVL=0
      0100050CH   BLOCK     CODE     NEAR LAB  LVL=1
      00000021H.3 SYMBOL    BIT      BIT       watchdogTrigger
      00000021H.4 SYMBOL    BIT      BIT       watchdogEnabled
      ---         BLOCKEND  ---      ---       LVL=1
      0100050CH   LINE      CODE     ---       #127
      0100050CH   LINE      CODE     ---       #128
      0100050CH   LINE      CODE     ---       #129
      0100050EH   LINE      CODE     ---       #130
      01000513H   LINE      CODE     ---       #133
      01000524H   LINE      CODE     ---       #134
      0100052EH   LINE      CODE     ---       #135
      0100053AH   LINE      CODE     ---       #138
      01000561H   LINE      CODE     ---       #139
      01000561H   LINE      CODE     ---       #142
      0100056AH   LINE      CODE     ---       #143
      01000575H   LINE      CODE     ---       #145
      0100057BH   LINE      CODE     ---       #146
      0100057DH   LINE      CODE     ---       #148
      01000588H   LINE      CODE     ---       #149
      01000588H   LINE      CODE     ---       #150
      01000588H   LINE      CODE     ---       #153
      0100059FH   LINE      CODE     ---       #154
      010005A4H   LINE      CODE     ---       #156
      010005A6H   LINE      CODE     ---       #157
      010005A9H   LINE      CODE     ---       #165
      010005A9H   LINE      CODE     ---       #166
      010005AEH   LINE      CODE     ---       #168
      010005B1H   LINE      CODE     ---       #169
      010005B1H   LINE      CODE     ---       #170
      010005B3H   LINE      CODE     ---       #171
      010005CBH   LINE      CODE     ---       #173
      010005CDH   LINE      CODE     ---       #174
      010005CDH   LINE      CODE     ---       #175
      010005D0H   LINE      CODE     ---       #177
      010005D0H   LINE      CODE     ---       #178
LX51 LINKER/LOCATER V4.66.97.0                                                        02/10/2023  14:24:31  PAGE 86


      010005D8H   LINE      CODE     ---       #179
      010005D9H   LINE      CODE     ---       #180
      010005DDH   LINE      CODE     ---       #181
      010005DDH   LINE      CODE     ---       #182
      010005E0H   LINE      CODE     ---       #184
      010005E0H   LINE      CODE     ---       #185
      010005E8H   LINE      CODE     ---       #186
      010005EBH   LINE      CODE     ---       #187
      010005EBH   LINE      CODE     ---       #188
      010005EEH   LINE      CODE     ---       #190
      010005EEH   LINE      CODE     ---       #192
      010005F0H   LINE      CODE     ---       #193
      010005F3H   LINE      CODE     ---       #194
      010005F8H   LINE      CODE     ---       #195
      010005FDH   LINE      CODE     ---       #196
      010005FFH   LINE      CODE     ---       #197
      01000601H   LINE      CODE     ---       #198
      01000609H   LINE      CODE     ---       #199
      01000609H   LINE      CODE     ---       #200
      01000609H   LINE      CODE     ---       #201
      01000609H   LINE      CODE     ---       #204
      0100060FH   LINE      CODE     ---       #205
      01000613H   LINE      CODE     ---       #206
      01000613H   LINE      CODE     ---       #207
      01000615H   LINE      CODE     ---       #209
      0100061AH   LINE      CODE     ---       #210
      0100061FH   LINE      CODE     ---       #211
      01000622H   LINE      CODE     ---       #212
      01000622H   LINE      CODE     ---       #213
      01000622H   LINE      CODE     ---       #214
      01000624H   LINE      CODE     ---       #216
      0100062AH   LINE      CODE     ---       #217
      0100062FH   LINE      CODE     ---       #218
      01000630H   LINE      CODE     ---       #219
      01000632H   LINE      CODE     ---       #221
      0100063AH   LINE      CODE     ---       #222
      0100063AH   LINE      CODE     ---       #223
      0100063CH   LINE      CODE     ---       #225
      0100063CH   LINE      CODE     ---       #226
      0100063FH   LINE      CODE     ---       #227
      01000644H   LINE      CODE     ---       #228
      01000648H   LINE      CODE     ---       #229
      01000655H   LINE      CODE     ---       #230
      01000655H   LINE      CODE     ---       #231
      01000657H   LINE      CODE     ---       #233
      01000659H   LINE      CODE     ---       #234
      01000659H   LINE      CODE     ---       #235
      0100065BH   LINE      CODE     ---       #237
      0100065BH   LINE      CODE     ---       #238
      0100065EH   LINE      CODE     ---       #239
      01000663H   LINE      CODE     ---       #240
      01000667H   LINE      CODE     ---       #241
      01000667H   LINE      CODE     ---       #242
      01000667H   LINE      CODE     ---       #243
      01000669H   LINE      CODE     ---       #245
      0100066EH   LINE      CODE     ---       #246
      0100066EH   LINE      CODE     ---       #247
      01000670H   LINE      CODE     ---       #249
      01000670H   LINE      CODE     ---       #251
      01000679H   LINE      CODE     ---       #252
      0100067EH   LINE      CODE     ---       #253
      01000680H   LINE      CODE     ---       #254
LX51 LINKER/LOCATER V4.66.97.0                                                        02/10/2023  14:24:31  PAGE 87


      01000680H   LINE      CODE     ---       #255
      01000684H   LINE      CODE     ---       #256
      01000684H   LINE      CODE     ---       #257
      01000687H   LINE      CODE     ---       #258
      01000687H   LINE      CODE     ---       #261
      0100069EH   LINE      CODE     ---       #264
      010006A2H   LINE      CODE     ---       #265
      010006ACH   LINE      CODE     ---       #266
      010006B0H   LINE      CODE     ---       #269
      010006BBH   LINE      CODE     ---       #270
      010006C6H   LINE      CODE     ---       #271
      010006D1H   LINE      CODE     ---       #272
      010006E3H   LINE      CODE     ---       #273
      010006EEH   LINE      CODE     ---       #274
      010006F9H   LINE      CODE     ---       #275
      ---         BLOCKEND  ---      ---       LVL=0

      01001E76H   BLOCK     CODE     ---       LVL=0
      00000021H.6 SYMBOL    BIT      BIT       en
      01001E76H   LINE      CODE     ---       #278
      01001E76H   LINE      CODE     ---       #279
      01001E76H   LINE      CODE     ---       #280
      01001E79H   LINE      CODE     ---       #281
      01001E7CH   LINE      CODE     ---       #283
      01001E7FH   LINE      CODE     ---       #284
      01001E7FH   LINE      CODE     ---       #285
      01001E7FH   LINE      CODE     ---       #286
      01001E83H   LINE      CODE     ---       #287
      ---         BLOCKEND  ---      ---       LVL=0

      01001E84H   BLOCK     CODE     ---       LVL=0
      00000007H   SYMBOL    DATA     BYTE      sec
      01001E84H   LINE      CODE     ---       #290
      01001E84H   LINE      CODE     ---       #291
      01001E84H   LINE      CODE     ---       #292
      01001E87H   LINE      CODE     ---       #294
      01001E89H   LINE      CODE     ---       #295
      01001E8BH   LINE      CODE     ---       #297
      01001E8DH   LINE      CODE     ---       #298
      01001E8DH   LINE      CODE     ---       #299
      01001E91H   LINE      CODE     ---       #300
      ---         BLOCKEND  ---      ---       LVL=0

      01001E41H   BLOCK     CODE     ---       LVL=0
      00000006H   SYMBOL    DATA     WORD      sec
      01001E41H   LINE      CODE     ---       #303
      01001E41H   LINE      CODE     ---       #304
      01001E41H   LINE      CODE     ---       #305
      01001E47H   LINE      CODE     ---       #306
      01001E4CH   LINE      CODE     ---       #307
      01001E4DH   LINE      CODE     ---       #308
      01001E52H   LINE      CODE     ---       #309
      01001E52H   LINE      CODE     ---       #310
      ---         BLOCKEND  ---      ---       LVL=0

      01001F1EH   BLOCK     CODE     ---       LVL=0
      01001F1EH   LINE      CODE     ---       #313
      01001F1EH   LINE      CODE     ---       #314
      01001F1EH   LINE      CODE     ---       #315
      01001F27H   LINE      CODE     ---       #316
      ---         BLOCKEND  ---      ---       LVL=0

LX51 LINKER/LOCATER V4.66.97.0                                                        02/10/2023  14:24:31  PAGE 88


      01001F55H   BLOCK     CODE     ---       LVL=0
      01001F55H   LINE      CODE     ---       #323
      01001F55H   LINE      CODE     ---       #324
      01001F55H   LINE      CODE     ---       #325
      01001F57H   LINE      CODE     ---       #326
      01001F59H   LINE      CODE     ---       #327
      01001F5AH   LINE      CODE     ---       #328
      01001F5DH   LINE      CODE     ---       #329
      ---         BLOCKEND  ---      ---       LVL=0

      ---         MODULE    ---      ---       SMBUS
      0200004AH   PUBLIC    PDATA    ---       smbRoArray
      01001409H   PUBLIC    CODE     ---       __SMB_WriteRegister
      01000E15H   PUBLIC    CODE     ---       __SMB_ReadRegister
      0100110BH   PUBLIC    CODE     ---       _SMB_GetInitStatus
      01000D4EH   PUBLIC    CODE     ---       SMBUS0_ISR
      01001D6AH   PUBLIC    CODE     ---       _SMB_SetStatusChargeState
      00000021H.5 PUBLIC    BIT      BIT       ?_SMB_SetStatusBit?BIT
      01001CB6H   PUBLIC    CODE     ---       _SMB_SetStatusBit
      01001E92H   PUBLIC    CODE     ---       _SMB_SetBuckStatus
      01001E53H   PUBLIC    CODE     ---       _SMB_SetIndexedValue
      010015BCH   PUBLIC    CODE     ---       SMB_Init
      000000A2H   SFRSYM    DATA     BYTE      SPI0CKR
      00000080H   SFRSYM    DATA     BYTE      P0
      000000D0H.2 SFRSYM    DATA     BIT       PSW_OV
      000000B1H   SFRSYM    DATA     BYTE      XOSC0CN
      00000090H   SFRSYM    DATA     BYTE      P1
      000000A0H   SFRSYM    DATA     BYTE      P2
      00000097H   SFRSYM    DATA     BYTE      ADC0CF
      000000C0H.7 SFRSYM    DATA     BIT       SMB0CN0_MASTER
      000000F9H   SFRSYM    DATA     WORD      PCA0
      000000AEH   SFRSYM    DATA     BYTE      RTC0KEY
      000000E6H   SFRSYM    DATA     BYTE      EIE1
      000000C0H.1 SFRSYM    DATA     BIT       SMB0CN0_ACK
      000000E7H   SFRSYM    DATA     BYTE      EIE2
      0000008FH   SFRSYM    DATA     BYTE      PSCTL
      000000E4H   SFRSYM    DATA     BYTE      IT01CF
      000000B0H   SFRSYM    DATA     BYTE      CS0CN0
      000000C0H.6 SFRSYM    DATA     BIT       SMB0CN0_TXMODE
      000000E3H   SFRSYM    DATA     BYTE      DERIVID
      000000AFH   SFRSYM    DATA     BYTE      CS0MD1
      000000A7H   SFRSYM    DATA     BYTE      SFRPAGE
      000000F3H   SFRSYM    DATA     BYTE      CS0MD2
      000000A4H   SFRSYM    DATA     BYTE      P0MDOUT
      000000F3H   SFRSYM    DATA     BYTE      CS0MD3
      000000A5H   SFRSYM    DATA     BYTE      P1MDOUT
      000000E8H.5 SFRSYM    DATA     BIT       ADC0CN0_ADINT
      000000CBH   SFRSYM    DATA     BYTE      TMR2RLH
      000000A6H   SFRSYM    DATA     BYTE      P2MDOUT
      000000A8H   SFRSYM    DATA     BYTE      IE
      00000093H   SFRSYM    DATA     BYTE      TMR3RLH
      000000F6H   SFRSYM    DATA     BYTE      EIP1
      000000F7H   SFRSYM    DATA     BYTE      EIP2
      00000098H.2 SFRSYM    DATA     BIT       SCON0_RB8
      000000CAH   SFRSYM    DATA     BYTE      TMR2RLL
      000000FCH   SFRSYM    DATA     BYTE      PCA0CPH0
      00000092H   SFRSYM    DATA     BYTE      TMR3RLL
      000000EAH   SFRSYM    DATA     BYTE      PCA0CPH1
      00000098H.3 SFRSYM    DATA     BIT       SCON0_TB8
      000000B0H.7 SFRSYM    DATA     BIT       CS0CN0_CSEN
      000000F0H.0 SFRSYM    DATA     BIT       B_B0
      00000082H   SFRSYM    DATA     WORD      DP
LX51 LINKER/LOCATER V4.66.97.0                                                        02/10/2023  14:24:31  PAGE 89


      000000ECH   SFRSYM    DATA     BYTE      PCA0CPH2
      000000F0H.1 SFRSYM    DATA     BIT       B_B1
      000000C3H   SFRSYM    DATA     WORD      ADC0GT
      000000F0H.2 SFRSYM    DATA     BIT       B_B2
      000000FBH   SFRSYM    DATA     BYTE      PCA0CPL0
      000000F0H.3 SFRSYM    DATA     BIT       B_B3
      000000D9H   SFRSYM    DATA     BYTE      PCA0MD
      000000DAH   SFRSYM    DATA     BYTE      PCA0CPM0
      000000E9H   SFRSYM    DATA     BYTE      PCA0CPL1
      000000F0H.4 SFRSYM    DATA     BIT       B_B4
      000000DBH   SFRSYM    DATA     BYTE      PCA0CPM1
      000000EBH   SFRSYM    DATA     BYTE      PCA0CPL2
      000000F0H.5 SFRSYM    DATA     BIT       B_B5
      000000DCH   SFRSYM    DATA     BYTE      PCA0CPM2
      000000B8H   SFRSYM    DATA     BYTE      IP
      000000BCH   SFRSYM    DATA     BYTE      ADC0TK
      000000F0H.6 SFRSYM    DATA     BIT       B_B6
      000000C5H   SFRSYM    DATA     WORD      ADC0LT
      000000D6H   SFRSYM    DATA     BYTE      IREF0CN0
      00000098H.5 SFRSYM    DATA     BIT       SCON0_MCE
      000000F0H.7 SFRSYM    DATA     BIT       B_B7
      000000E1H   SFRSYM    DATA     BYTE      XBR0
      000000C1H   SFRSYM    DATA     BYTE      SMB0CF
      000000E2H   SFRSYM    DATA     BYTE      XBR1
      000000D2H   SFRSYM    DATA     BYTE      CS0SCAN0
      000000C0H.5 SFRSYM    DATA     BIT       SMB0CN0_STA
      000000E3H   SFRSYM    DATA     BYTE      XBR2
      000000D3H   SFRSYM    DATA     BYTE      CS0SCAN1
      00000096H   SFRSYM    DATA     BYTE      ADC0MX
      000000E0H.0 SFRSYM    DATA     BIT       ACC_ACC0
      000000D1H   SFRSYM    DATA     BYTE      REF0CN
      000000B2H   SFRSYM    DATA     BYTE      HFO0CN
      0000008EH   SFRSYM    DATA     BYTE      CKCON0
      000000E0H.1 SFRSYM    DATA     BIT       ACC_ACC1
      000000C9H   SFRSYM    DATA     BYTE      REG0CN
      00000085H   SFRSYM    DATA     BYTE      CRC0IN
      000000C8H.2 SFRSYM    DATA     BIT       TMR2CN0_TR2
      000000E0H.2 SFRSYM    DATA     BIT       ACC_ACC2
      000000E0H.3 SFRSYM    DATA     BIT       ACC_ACC3
      00000081H   SFRSYM    DATA     BYTE      SP
      0000009DH   SFRSYM    DATA     BYTE      CMP0MD
      000000E0H.4 SFRSYM    DATA     BIT       ACC_ACC4
      000000D8H.0 SFRSYM    DATA     BIT       PCA0CN0_CCF0
      000000E0H.5 SFRSYM    DATA     BIT       ACC_ACC5
      000000D8H.1 SFRSYM    DATA     BIT       PCA0CN0_CCF1
      000000E0H.6 SFRSYM    DATA     BIT       ACC_ACC6
      000000CCH   SFRSYM    DATA     WORD      TMR2
      000000D8H.2 SFRSYM    DATA     BIT       PCA0CN0_CCF2
      000000E0H.7 SFRSYM    DATA     BIT       ACC_ACC7
      00000094H   SFRSYM    DATA     WORD      TMR3
      000000B0H.0 SFRSYM    DATA     BIT       CS0CN0_CSCMPF
      000000C0H.3 SFRSYM    DATA     BIT       SMB0CN0_ACKRQ
      000000FFH   SFRSYM    DATA     BYTE      VDM0CN
      000000F1H   SFRSYM    DATA     BYTE      P0MDIN
      00000098H.4 SFRSYM    DATA     BIT       SCON0_REN
      000000F2H   SFRSYM    DATA     BYTE      P1MDIN
      000000FEH   SFRSYM    DATA     BYTE      CS0THH
      000000C0H.4 SFRSYM    DATA     BIT       SMB0CN0_STO
      000000B5H   SFRSYM    DATA     BYTE      PMU0CF
      000000C7H   SFRSYM    DATA     BYTE      P0MASK
      000000BFH   SFRSYM    DATA     BYTE      P1MASK
      000000FDH   SFRSYM    DATA     BYTE      CS0THL
LX51 LINKER/LOCATER V4.66.97.0                                                        02/10/2023  14:24:31  PAGE 90


      000000D0H.3 SFRSYM    DATA     BIT       PSW_RS0
      000000D8H.7 SFRSYM    DATA     BIT       PCA0CN0_CF
      000000F8H.4 SFRSYM    DATA     BIT       SPI0CN0_RXOVRN
      000000D0H.4 SFRSYM    DATA     BIT       PSW_RS1
      000000C8H.0 SFRSYM    DATA     BIT       TMR2CN0_T2XCLK0
      000000C8H.1 SFRSYM    DATA     BIT       TMR2CN0_T2XCLK1
      000000E8H.7 SFRSYM    DATA     BIT       ADC0CN0_ADEN
      00000089H   SFRSYM    DATA     BYTE      TMOD
      00000088H   SFRSYM    DATA     BYTE      TCON
      000000B5H   SFRSYM    DATA     BYTE      PMU0MD
      000000CEH   SFRSYM    DATA     BYTE      PMU0FL
      0000009CH   SFRSYM    DATA     BYTE      CRC0FLIP
      000000D0H.0 SFRSYM    DATA     BIT       PSW_PARITY
      000000A8H.4 SFRSYM    DATA     BIT       IE_ES0
      0000009FH   SFRSYM    DATA     BYTE      CMP0MX
      000000A8H.1 SFRSYM    DATA     BIT       IE_ET0
      000000A8H.3 SFRSYM    DATA     BIT       IE_ET1
      000000D4H   SFRSYM    DATA     BYTE      P0SKIP
      000000A8H.5 SFRSYM    DATA     BIT       IE_ET2
      000000D5H   SFRSYM    DATA     BYTE      P1SKIP
      000000E8H   SFRSYM    DATA     BYTE      ADC0CN0
      000000A8H.0 SFRSYM    DATA     BIT       IE_EX0
      000000D8H.6 SFRSYM    DATA     BIT       PCA0CN0_CR
      000000A8H.2 SFRSYM    DATA     BIT       IE_EX1
      00000098H.7 SFRSYM    DATA     BIT       SCON0_SMODE
      000000A9H   SFRSYM    DATA     BYTE      CLKSEL
      000000F8H.0 SFRSYM    DATA     BIT       SPI0CN0_SPIEN
      000000F0H   SFRSYM    DATA     BYTE      B
      000000BEH   SFRSYM    DATA     BYTE      ADC0H
      0000009EH   SFRSYM    DATA     BYTE      CRC0AUTO
      000000B0H.4 SFRSYM    DATA     BIT       CS0CN0_CSBUSY
      000000E8H.6 SFRSYM    DATA     BIT       ADC0CN0_ADBMEN
      000000CAH   SFRSYM    DATA     WORD      TMR2RL
      000000BDH   SFRSYM    DATA     BYTE      ADC0L
      00000092H   SFRSYM    DATA     WORD      TMR3RL
      000000D8H   SFRSYM    DATA     BYTE      PCA0CN0
      000000E0H   SFRSYM    DATA     BYTE      ACC
      000000FBH   SFRSYM    DATA     WORD      PCA0CP0
      000000E9H   SFRSYM    DATA     WORD      PCA0CP1
      000000EBH   SFRSYM    DATA     WORD      PCA0CP2
      00000084H   SFRSYM    DATA     BYTE      CRC0CN0
      0000008CH   SFRSYM    DATA     BYTE      TH0
      000000B8H.4 SFRSYM    DATA     BIT       IP_PS0
      0000008DH   SFRSYM    DATA     BYTE      TH1
      000000FAH   SFRSYM    DATA     BYTE      PCA0H
      000000B8H.1 SFRSYM    DATA     BIT       IP_PT0
      000000B8H.3 SFRSYM    DATA     BIT       IP_PT1
      000000C0H.2 SFRSYM    DATA     BIT       SMB0CN0_ARBLOST
      000000B8H.5 SFRSYM    DATA     BIT       IP_PT2
      0000008AH   SFRSYM    DATA     BYTE      TL0
      000000AAH   SFRSYM    DATA     BYTE      CS0CF
      000000F8H.1 SFRSYM    DATA     BIT       SPI0CN0_TXBMT
      000000D0H.5 SFRSYM    DATA     BIT       PSW_F0
      000000A8H.6 SFRSYM    DATA     BIT       IE_ESPI0
      0000008BH   SFRSYM    DATA     BYTE      TL1
      000000F9H   SFRSYM    DATA     BYTE      PCA0L
      000000C0H.0 SFRSYM    DATA     BIT       SMB0CN0_SI
      000000D0H.1 SFRSYM    DATA     BIT       PSW_F1
      00000080H.0 SFRSYM    DATA     BIT       P0_B0
      000000B8H.0 SFRSYM    DATA     BIT       IP_PX0
      00000090H.0 SFRSYM    DATA     BIT       P1_B0
      00000080H.1 SFRSYM    DATA     BIT       P0_B1
LX51 LINKER/LOCATER V4.66.97.0                                                        02/10/2023  14:24:31  PAGE 91


      000000B8H.2 SFRSYM    DATA     BIT       IP_PX1
      000000EEH   SFRSYM    DATA     BYTE      CS0DH
      0000009BH   SFRSYM    DATA     BYTE      CMP0CN0
      00000088H.1 SFRSYM    DATA     BIT       TCON_IE0
      00000090H.1 SFRSYM    DATA     BIT       P1_B1
      00000080H.2 SFRSYM    DATA     BIT       P0_B2
      00000088H.3 SFRSYM    DATA     BIT       TCON_IE1
      00000090H.2 SFRSYM    DATA     BIT       P1_B2
      00000080H.3 SFRSYM    DATA     BIT       P0_B3
      000000C0H   SFRSYM    DATA     BYTE      SMB0CN0
      00000090H.3 SFRSYM    DATA     BIT       P1_B3
      00000080H.4 SFRSYM    DATA     BIT       P0_B4
      00000090H.4 SFRSYM    DATA     BIT       P1_B4
      00000080H.5 SFRSYM    DATA     BIT       P0_B5
      000000EDH   SFRSYM    DATA     BYTE      CS0DL
      00000090H.5 SFRSYM    DATA     BIT       P1_B5
      00000080H.6 SFRSYM    DATA     BIT       P0_B6
      00000090H.6 SFRSYM    DATA     BIT       P1_B6
      00000080H.7 SFRSYM    DATA     BIT       P0_B7
      00000090H.7 SFRSYM    DATA     BIT       P1_B7
      000000A0H.7 SFRSYM    DATA     BIT       P2_B7
      00000083H   SFRSYM    DATA     BYTE      DPH
      000000C4H   SFRSYM    DATA     BYTE      ADC0GTH
      000000C8H.7 SFRSYM    DATA     BIT       TMR2CN0_TF2H
      000000C8H.3 SFRSYM    DATA     BIT       TMR2CN0_T2SPLIT
      000000D0H.6 SFRSYM    DATA     BIT       PSW_AC
      000000F8H   SFRSYM    DATA     BYTE      SPI0CN0
      000000B3H   SFRSYM    DATA     BYTE      HFO0CAL
      000000DEH   SFRSYM    DATA     BYTE      CS0SE
      00000088H.5 SFRSYM    DATA     BIT       TCON_TF0
      00000098H.0 SFRSYM    DATA     BIT       SCON0_RI
      00000082H   SFRSYM    DATA     BYTE      DPL
      00000088H.7 SFRSYM    DATA     BIT       TCON_TF1
      00000099H   SFRSYM    DATA     BYTE      SBUF0
      00000087H   SFRSYM    DATA     BYTE      PCON0
      000000B9H   SFRSYM    DATA     BYTE      IREF0CF
      000000C3H   SFRSYM    DATA     BYTE      ADC0GTL
      000000C8H.6 SFRSYM    DATA     BIT       TMR2CN0_TF2L
      00000098H.1 SFRSYM    DATA     BIT       SCON0_TI
      000000E8H.0 SFRSYM    DATA     BIT       ADC0CN0_ADCM0
      000000C6H   SFRSYM    DATA     BYTE      ADC0LTH
      00000088H.0 SFRSYM    DATA     BIT       TCON_IT0
      000000B0H.1 SFRSYM    DATA     BIT       CS0CN0_CSPME
      000000E8H.1 SFRSYM    DATA     BIT       ADC0CN0_ADCM1
      000000EFH   SFRSYM    DATA     BYTE      RSTSRC
      000000D7H   SFRSYM    DATA     BYTE      P0MAT
      00000086H   SFRSYM    DATA     BYTE      CRC0DAT
      00000088H.2 SFRSYM    DATA     BIT       TCON_IT1
      000000E8H.2 SFRSYM    DATA     BIT       ADC0CN0_ADCM2
      00000098H   SFRSYM    DATA     BYTE      SCON0
      000000CFH   SFRSYM    DATA     BYTE      P1MAT
      000000DEH   SFRSYM    DATA     BYTE      CS0PM
      000000E8H.3 SFRSYM    DATA     BIT       ADC0CN0_ADWINT
      000000E8H.4 SFRSYM    DATA     BIT       ADC0CN0_ADBUSY
      000000F5H   SFRSYM    DATA     BYTE      SMB0ADM
      000000C5H   SFRSYM    DATA     BYTE      ADC0LTL
      000000F8H.5 SFRSYM    DATA     BIT       SPI0CN0_MODF
      000000B8H.6 SFRSYM    DATA     BIT       IP_PSPI0
      000000B0H.6 SFRSYM    DATA     BIT       CS0CN0_CSEOS
      000000C8H   SFRSYM    DATA     BYTE      TMR2CN0
      00000091H   SFRSYM    DATA     BYTE      TMR3CN0
      000000F4H   SFRSYM    DATA     BYTE      SMB0ADR
LX51 LINKER/LOCATER V4.66.97.0                                                        02/10/2023  14:24:31  PAGE 92


      00000088H.4 SFRSYM    DATA     BIT       TCON_TR0
      000000B0H.5 SFRSYM    DATA     BIT       CS0CN0_CSINT
      000000ABH   SFRSYM    DATA     BYTE      CS0MX
      000000C8H.4 SFRSYM    DATA     BIT       TMR2CN0_TF2CEN
      00000088H.6 SFRSYM    DATA     BIT       TCON_TR1
      000000C2H   SFRSYM    DATA     BYTE      SMB0DAT
      00000099H   SFRSYM    DATA     BYTE      P0DRV
      000000DDH   SFRSYM    DATA     BYTE      CS0SS
      00000080H.0 SFRSYM    DATA     BIT       AUX
      000000CDH   SFRSYM    DATA     BYTE      TMR2H
      000000A1H   SFRSYM    DATA     BYTE      SPI0CFG
      0000009BH   SFRSYM    DATA     BYTE      P1DRV
      00000095H   SFRSYM    DATA     BYTE      TMR3H
      0000009DH   SFRSYM    DATA     BYTE      P2DRV
      0000009AH   SFRSYM    DATA     BYTE      CRC0CNT
      000000CCH   SFRSYM    DATA     BYTE      TMR2L
      000000ACH   SFRSYM    DATA     BYTE      RTC0ADR
      000000F8H.7 SFRSYM    DATA     BIT       SPI0CN0_SPIF
      00000094H   SFRSYM    DATA     BYTE      TMR3L
      000000BBH   SFRSYM    DATA     BYTE      ADC0PWR
      000000A8H.7 SFRSYM    DATA     BIT       IE_EA
      000000ADH   SFRSYM    DATA     BYTE      RTC0DAT
      000000B0H.3 SFRSYM    DATA     BIT       CS0CN0_CSCMPEN
      000000B6H   SFRSYM    DATA     BYTE      FLSCL
      000000C8H.5 SFRSYM    DATA     BIT       TMR2CN0_TF2LEN
      000000F8H.6 SFRSYM    DATA     BIT       SPI0CN0_WCOL
      000000F8H.2 SFRSYM    DATA     BIT       SPI0CN0_NSSMD0
      000000D0H.7 SFRSYM    DATA     BIT       PSW_CY
      000000A3H   SFRSYM    DATA     BYTE      SPI0DAT
      000000F8H.3 SFRSYM    DATA     BIT       SPI0CN0_NSSMD1
      000000BDH   SFRSYM    DATA     WORD      ADC0
      0000008EH   SFRSYM    DATA     BYTE      TOFFH
      000000D0H   SFRSYM    DATA     BYTE      PSW
      000000DFH   SFRSYM    DATA     BYTE      PCA0PWM
      000000E2H   SFRSYM    DATA     BYTE      REVID
      0000008DH   SFRSYM    DATA     BYTE      TOFFL
      000000B7H   SFRSYM    DATA     BYTE      FLKEY
      000000BAH   SFRSYM    DATA     BYTE      ADC0AC

      010019E4H   BLOCK     CODE     ---       LVL=0
      ---         BLOCKEND  ---      ---       LVL=0

      010015BCH   BLOCK     CODE     ---       LVL=0
      010015BCH   BLOCK     CODE     NEAR LAB  LVL=1
      02000028H   SYMBOL    PDATA    ---       roPtr
      ---         BLOCKEND  ---      ---       LVL=1
      010015BCH   LINE      CODE     ---       #54
      010015BCH   LINE      CODE     ---       #55
      010015BCH   LINE      CODE     ---       #56
      010015C9H   LINE      CODE     ---       #59
      010015D6H   LINE      CODE     ---       #60
      010015DCH   LINE      CODE     ---       #61
      010015E6H   LINE      CODE     ---       #62
      010015EBH   LINE      CODE     ---       #63
      010015F0H   LINE      CODE     ---       #64
      010015F5H   LINE      CODE     ---       #65
      010015FAH   LINE      CODE     ---       #66
      010015FFH   LINE      CODE     ---       #67
      01001604H   LINE      CODE     ---       #68
      01001609H   LINE      CODE     ---       #69
      0100160EH   LINE      CODE     ---       #70
      ---         BLOCKEND  ---      ---       LVL=0
LX51 LINKER/LOCATER V4.66.97.0                                                        02/10/2023  14:24:31  PAGE 93



      01001E53H   BLOCK     CODE     ---       LVL=0
      00000007H   SYMBOL    DATA     BYTE      index
      00000004H   SYMBOL    DATA     WORD      val
      01001E53H   LINE      CODE     ---       #74
      01001E53H   LINE      CODE     ---       #75
      01001E53H   LINE      CODE     ---       #76
      01001E56H   LINE      CODE     ---       #77
      01001E61H   LINE      CODE     ---       #78
      01001E64H   LINE      CODE     ---       #79
      ---         BLOCKEND  ---      ---       LVL=0

      01001E92H   BLOCK     CODE     ---       LVL=0
      00000006H   SYMBOL    DATA     WORD      val
      01001E92H   LINE      CODE     ---       #83
      01001E92H   LINE      CODE     ---       #84
      01001E92H   LINE      CODE     ---       #85
      01001E95H   LINE      CODE     ---       #86
      01001E9CH   LINE      CODE     ---       #87
      01001E9FH   LINE      CODE     ---       #88
      ---         BLOCKEND  ---      ---       LVL=0

      01001CB6H   BLOCK     CODE     ---       LVL=0
      00000006H   SYMBOL    DATA     WORD      mask
      00000021H.5 SYMBOL    BIT      BIT       val
      01001CB6H   LINE      CODE     ---       #91
      01001CB6H   LINE      CODE     ---       #92
      01001CB6H   LINE      CODE     ---       #93
      01001CB9H   LINE      CODE     ---       #94
      01001CC8H   LINE      CODE     ---       #95
      01001CCBH   LINE      CODE     ---       #96
      01001CD3H   LINE      CODE     ---       #97
      01001CD3H   LINE      CODE     ---       #98
      01001CD6H   LINE      CODE     ---       #99
      ---         BLOCKEND  ---      ---       LVL=0

      01001D6AH   BLOCK     CODE     ---       LVL=0
      00000007H   SYMBOL    DATA     BYTE      state
      01001D6AH   LINE      CODE     ---       #102
      01001D6AH   LINE      CODE     ---       #103
      01001D6AH   LINE      CODE     ---       #104
      01001D6DH   LINE      CODE     ---       #105
      01001D81H   LINE      CODE     ---       #107
      01001D84H   LINE      CODE     ---       #108
      ---         BLOCKEND  ---      ---       LVL=0

      01000D4EH   BLOCK     CODE     ---       LVL=0
      01000D6BH   BLOCK     CODE     NEAR LAB  LVL=1
      00000022H.7 SYMBOL    BIT      BIT       first_byte
      02000047H   SYMBOL    PDATA    BYTE      smb_reg
      02000048H   SYMBOL    PDATA    WORD      smb_data
      ---         BLOCKEND  ---      ---       LVL=1
      01000D4EH   LINE      CODE     ---       #122
      01000D6BH   LINE      CODE     ---       #128
      01000D71H   LINE      CODE     ---       #129
      01000D71H   LINE      CODE     ---       #130
      01000D87H   LINE      CODE     ---       #131
      01000D87H   LINE      CODE     ---       #133
      01000D87H   LINE      CODE     ---       #134
      01000D89H   LINE      CODE     ---       #135
      01000D8BH   LINE      CODE     ---       #137
      01000D93H   LINE      CODE     ---       #138
LX51 LINKER/LOCATER V4.66.97.0                                                        02/10/2023  14:24:31  PAGE 94


      01000D93H   LINE      CODE     ---       #140
      01000D93H   LINE      CODE     ---       #141
      01000D93H   LINE      CODE     ---       #142
      01000D93H   LINE      CODE     ---       #143
      01000D95H   LINE      CODE     ---       #146
      01000D95H   LINE      CODE     ---       #148
      01000D98H   LINE      CODE     ---       #150
      01000D9AH   LINE      CODE     ---       #151
      01000D9FH   LINE      CODE     ---       #152
      01000DA4H   LINE      CODE     ---       #153
      01000DA6H   LINE      CODE     ---       #155
      01000DB0H   LINE      CODE     ---       #156
      01000DB7H   LINE      CODE     ---       #158
      01000DC0H   LINE      CODE     ---       #159
      01000DC6H   LINE      CODE     ---       #160
      01000DC6H   LINE      CODE     ---       #161
      01000DCBH   LINE      CODE     ---       #162
      01000DCBH   LINE      CODE     ---       #163
      01000DCDH   LINE      CODE     ---       #164
      01000DCFH   LINE      CODE     ---       #168
      01000DCFH   LINE      CODE     ---       #169
      01000DD1H   LINE      CODE     ---       #171
      01000DD3H   LINE      CODE     ---       #174
      01000DD3H   LINE      CODE     ---       #175
      01000DD6H   LINE      CODE     ---       #176
      01000DD6H   LINE      CODE     ---       #177
      01000DDFH   LINE      CODE     ---       #178
      01000DE4H   LINE      CODE     ---       #179
      01000DE4H   LINE      CODE     ---       #180
      01000DE6H   LINE      CODE     ---       #188
      01000DE6H   LINE      CODE     ---       #189
      01000DE8H   LINE      CODE     ---       #191
      01000DEAH   LINE      CODE     ---       #194
      01000DEAH   LINE      CODE     ---       #195
      01000DEDH   LINE      CODE     ---       #196
      01000DF0H   LINE      CODE     ---       #197
      01000DF0H   LINE      CODE     ---       #198
      01000DF0H   LINE      CODE     ---       #199
      01000DF0H   LINE      CODE     ---       #200
      01000DF2H   LINE      CODE     ---       #201
      01000DF2H   LINE      CODE     ---       #202
      01000DF2H   LINE      CODE     ---       #205
      01000DF2H   LINE      CODE     ---       #206
      01000DF4H   LINE      CODE     ---       #207
      01000DF6H   LINE      CODE     ---       #208
      01000DF8H   LINE      CODE     ---       #209
      01000DF8H   LINE      CODE     ---       #211
      01000DFAH   LINE      CODE     ---       #212
      ---         BLOCKEND  ---      ---       LVL=0

      0100110BH   BLOCK     CODE     ---       LVL=0
      0100110BH   BLOCK     CODE     NEAR LAB  LVL=1
      0200002BH   SYMBOL    PDATA    WORD      s
      ---         BLOCKEND  ---      ---       LVL=1
      0100110BH   LINE      CODE     ---       #218
      0100110BH   LINE      CODE     ---       #219
      0100110BH   LINE      CODE     ---       #220
      01001111H   LINE      CODE     ---       #223
      0100111CH   LINE      CODE     ---       #224
      01001128H   LINE      CODE     ---       #225
      01001134H   LINE      CODE     ---       #226
      01001140H   LINE      CODE     ---       #227
LX51 LINKER/LOCATER V4.66.97.0                                                        02/10/2023  14:24:31  PAGE 95


      0100114EH   LINE      CODE     ---       #228
      01001157H   LINE      CODE     ---       #229
      01001164H   LINE      CODE     ---       #230
      0100116DH   LINE      CODE     ---       #231
      01001176H   LINE      CODE     ---       #232
      0100117FH   LINE      CODE     ---       #235
      01001194H   LINE      CODE     ---       #237
      01001194H   LINE      CODE     ---       #238
      ---         BLOCKEND  ---      ---       LVL=0

      01000E15H   BLOCK     CODE     ---       LVL=0
      0200003FH   SYMBOL    PDATA    BYTE      reg
      01000E19H   BLOCK     CODE     NEAR LAB  LVL=1
      00000021H.6 SYMBOL    BIT      BIT       high_half
      02000040H   SYMBOL    PDATA    BYTE      index
      00000004H   SYMBOL    DATA     WORD      d16
      ---         BLOCKEND  ---      ---       LVL=1
      01000E15H   LINE      CODE     ---       #241
      01000E19H   LINE      CODE     ---       #242
      01000E19H   LINE      CODE     ---       #243
      01000E21H   LINE      CODE     ---       #244
      01000E29H   LINE      CODE     ---       #247
      01000E33H   LINE      CODE     ---       #249
      01000E3FH   LINE      CODE     ---       #254
      01000E45H   LINE      CODE     ---       #255
      01000E4DH   LINE      CODE     ---       #256
      01000E4FH   LINE      CODE     ---       #257
      01000E51H   LINE      CODE     ---       #258
      01000E57H   LINE      CODE     ---       #259
      01000E57H   LINE      CODE     ---       #260
      01000E57H   LINE      CODE     ---       #261
      01000E65H   LINE      CODE     ---       #263
      01000E71H   LINE      CODE     ---       #264
      01000E7DH   LINE      CODE     ---       #266
      01000E8DH   LINE      CODE     ---       #267
      01000E95H   LINE      CODE     ---       #269
      01000E9BH   LINE      CODE     ---       #270
      01000EA4H   LINE      CODE     ---       #272
      01000EABH   LINE      CODE     ---       #273
      01000EADH   LINE      CODE     ---       #274
      01000EB0H   LINE      CODE     ---       #275
      01000EB0H   LINE      CODE     ---       #277
      01000EB3H   LINE      CODE     ---       #279
      01000EB5H   LINE      CODE     ---       #280
      01000EB5H   LINE      CODE     ---       #282
      01000EB7H   LINE      CODE     ---       #283
      ---         BLOCKEND  ---      ---       LVL=0

      01001409H   BLOCK     CODE     ---       LVL=0
      0200003FH   SYMBOL    PDATA    BYTE      reg
      02000040H   SYMBOL    PDATA    WORD      d
      01001413H   BLOCK     CODE     NEAR LAB  LVL=1
      02000042H   SYMBOL    PDATA    BYTE      index
      ---         BLOCKEND  ---      ---       LVL=1
      01001409H   LINE      CODE     ---       #286
      01001413H   LINE      CODE     ---       #287
      01001413H   LINE      CODE     ---       #288
      0100141CH   LINE      CODE     ---       #290
      01001431H   LINE      CODE     ---       #292
      0100143FH   LINE      CODE     ---       #293
      01001446H   LINE      CODE     ---       #295
      01001458H   LINE      CODE     ---       #296
LX51 LINKER/LOCATER V4.66.97.0                                                        02/10/2023  14:24:31  PAGE 96


      0100145FH   LINE      CODE     ---       #298
      01001466H   LINE      CODE     ---       #299
      0100146DH   LINE      CODE     ---       #301
      01001477H   LINE      CODE     ---       #302
      01001477H   LINE      CODE     ---       #303
      ---         BLOCKEND  ---      ---       LVL=0

      ---         MODULE    ---      ---       TEMP
      02000079H   PUBLIC    PDATA    WORD      TEMP_compBulkMv
      02000077H   PUBLIC    PDATA    INT       TEMP_ExtTempC10
      00000023H.0 PUBLIC    BIT      BIT       TEMP_extIsMissing
      02000075H   PUBLIC    PDATA    WORD      TEMP_compFloatMv
      02000073H   PUBLIC    PDATA    INT       TEMP_IntTempC10
      02000071H   PUBLIC    PDATA    INT       TEMP_CurTempC10
      010008A7H   PUBLIC    CODE     ---       TEMP_Update
      01001F97H   PUBLIC    CODE     ---       TEMP_Init
      000000A2H   SFRSYM    DATA     BYTE      SPI0CKR
      00000080H   SFRSYM    DATA     BYTE      P0
      000000D0H.2 SFRSYM    DATA     BIT       PSW_OV
      000000B1H   SFRSYM    DATA     BYTE      XOSC0CN
      00000090H   SFRSYM    DATA     BYTE      P1
      000000A0H   SFRSYM    DATA     BYTE      P2
      00000097H   SFRSYM    DATA     BYTE      ADC0CF
      000000C0H.7 SFRSYM    DATA     BIT       SMB0CN0_MASTER
      000000F9H   SFRSYM    DATA     WORD      PCA0
      000000AEH   SFRSYM    DATA     BYTE      RTC0KEY
      000000E6H   SFRSYM    DATA     BYTE      EIE1
      000000C0H.1 SFRSYM    DATA     BIT       SMB0CN0_ACK
      000000E7H   SFRSYM    DATA     BYTE      EIE2
      0000008FH   SFRSYM    DATA     BYTE      PSCTL
      000000E4H   SFRSYM    DATA     BYTE      IT01CF
      000000B0H   SFRSYM    DATA     BYTE      CS0CN0
      000000C0H.6 SFRSYM    DATA     BIT       SMB0CN0_TXMODE
      000000E3H   SFRSYM    DATA     BYTE      DERIVID
      000000AFH   SFRSYM    DATA     BYTE      CS0MD1
      000000A7H   SFRSYM    DATA     BYTE      SFRPAGE
      000000F3H   SFRSYM    DATA     BYTE      CS0MD2
      000000A4H   SFRSYM    DATA     BYTE      P0MDOUT
      000000F3H   SFRSYM    DATA     BYTE      CS0MD3
      000000A5H   SFRSYM    DATA     BYTE      P1MDOUT
      000000E8H.5 SFRSYM    DATA     BIT       ADC0CN0_ADINT
      000000CBH   SFRSYM    DATA     BYTE      TMR2RLH
      000000A6H   SFRSYM    DATA     BYTE      P2MDOUT
      000000A8H   SFRSYM    DATA     BYTE      IE
      00000093H   SFRSYM    DATA     BYTE      TMR3RLH
      000000F6H   SFRSYM    DATA     BYTE      EIP1
      000000F7H   SFRSYM    DATA     BYTE      EIP2
      00000098H.2 SFRSYM    DATA     BIT       SCON0_RB8
      000000CAH   SFRSYM    DATA     BYTE      TMR2RLL
      000000FCH   SFRSYM    DATA     BYTE      PCA0CPH0
      00000092H   SFRSYM    DATA     BYTE      TMR3RLL
      000000EAH   SFRSYM    DATA     BYTE      PCA0CPH1
      00000098H.3 SFRSYM    DATA     BIT       SCON0_TB8
      000000B0H.7 SFRSYM    DATA     BIT       CS0CN0_CSEN
      000000F0H.0 SFRSYM    DATA     BIT       B_B0
      00000082H   SFRSYM    DATA     WORD      DP
      000000ECH   SFRSYM    DATA     BYTE      PCA0CPH2
      000000F0H.1 SFRSYM    DATA     BIT       B_B1
      000000C3H   SFRSYM    DATA     WORD      ADC0GT
      000000F0H.2 SFRSYM    DATA     BIT       B_B2
      000000FBH   SFRSYM    DATA     BYTE      PCA0CPL0
      000000F0H.3 SFRSYM    DATA     BIT       B_B3
LX51 LINKER/LOCATER V4.66.97.0                                                        02/10/2023  14:24:31  PAGE 97


      000000D9H   SFRSYM    DATA     BYTE      PCA0MD
      000000DAH   SFRSYM    DATA     BYTE      PCA0CPM0
      000000E9H   SFRSYM    DATA     BYTE      PCA0CPL1
      000000F0H.4 SFRSYM    DATA     BIT       B_B4
      000000DBH   SFRSYM    DATA     BYTE      PCA0CPM1
      000000EBH   SFRSYM    DATA     BYTE      PCA0CPL2
      000000F0H.5 SFRSYM    DATA     BIT       B_B5
      000000DCH   SFRSYM    DATA     BYTE      PCA0CPM2
      000000B8H   SFRSYM    DATA     BYTE      IP
      000000BCH   SFRSYM    DATA     BYTE      ADC0TK
      000000F0H.6 SFRSYM    DATA     BIT       B_B6
      000000C5H   SFRSYM    DATA     WORD      ADC0LT
      000000D6H   SFRSYM    DATA     BYTE      IREF0CN0
      00000098H.5 SFRSYM    DATA     BIT       SCON0_MCE
      000000F0H.7 SFRSYM    DATA     BIT       B_B7
      000000E1H   SFRSYM    DATA     BYTE      XBR0
      000000C1H   SFRSYM    DATA     BYTE      SMB0CF
      000000E2H   SFRSYM    DATA     BYTE      XBR1
      000000D2H   SFRSYM    DATA     BYTE      CS0SCAN0
      000000C0H.5 SFRSYM    DATA     BIT       SMB0CN0_STA
      000000E3H   SFRSYM    DATA     BYTE      XBR2
      000000D3H   SFRSYM    DATA     BYTE      CS0SCAN1
      00000096H   SFRSYM    DATA     BYTE      ADC0MX
      000000E0H.0 SFRSYM    DATA     BIT       ACC_ACC0
      000000D1H   SFRSYM    DATA     BYTE      REF0CN
      000000B2H   SFRSYM    DATA     BYTE      HFO0CN
      0000008EH   SFRSYM    DATA     BYTE      CKCON0
      000000E0H.1 SFRSYM    DATA     BIT       ACC_ACC1
      000000C9H   SFRSYM    DATA     BYTE      REG0CN
      00000085H   SFRSYM    DATA     BYTE      CRC0IN
      000000C8H.2 SFRSYM    DATA     BIT       TMR2CN0_TR2
      000000E0H.2 SFRSYM    DATA     BIT       ACC_ACC2
      000000E0H.3 SFRSYM    DATA     BIT       ACC_ACC3
      00000081H   SFRSYM    DATA     BYTE      SP
      0000009DH   SFRSYM    DATA     BYTE      CMP0MD
      000000E0H.4 SFRSYM    DATA     BIT       ACC_ACC4
      000000D8H.0 SFRSYM    DATA     BIT       PCA0CN0_CCF0
      000000E0H.5 SFRSYM    DATA     BIT       ACC_ACC5
      000000D8H.1 SFRSYM    DATA     BIT       PCA0CN0_CCF1
      000000E0H.6 SFRSYM    DATA     BIT       ACC_ACC6
      000000CCH   SFRSYM    DATA     WORD      TMR2
      000000D8H.2 SFRSYM    DATA     BIT       PCA0CN0_CCF2
      000000E0H.7 SFRSYM    DATA     BIT       ACC_ACC7
      00000094H   SFRSYM    DATA     WORD      TMR3
      000000B0H.0 SFRSYM    DATA     BIT       CS0CN0_CSCMPF
      000000C0H.3 SFRSYM    DATA     BIT       SMB0CN0_ACKRQ
      000000FFH   SFRSYM    DATA     BYTE      VDM0CN
      000000F1H   SFRSYM    DATA     BYTE      P0MDIN
      00000098H.4 SFRSYM    DATA     BIT       SCON0_REN
      000000F2H   SFRSYM    DATA     BYTE      P1MDIN
      000000FEH   SFRSYM    DATA     BYTE      CS0THH
      000000C0H.4 SFRSYM    DATA     BIT       SMB0CN0_STO
      000000B5H   SFRSYM    DATA     BYTE      PMU0CF
      000000C7H   SFRSYM    DATA     BYTE      P0MASK
      000000BFH   SFRSYM    DATA     BYTE      P1MASK
      000000FDH   SFRSYM    DATA     BYTE      CS0THL
      000000D0H.3 SFRSYM    DATA     BIT       PSW_RS0
      000000D8H.7 SFRSYM    DATA     BIT       PCA0CN0_CF
      000000F8H.4 SFRSYM    DATA     BIT       SPI0CN0_RXOVRN
      000000D0H.4 SFRSYM    DATA     BIT       PSW_RS1
      000000C8H.0 SFRSYM    DATA     BIT       TMR2CN0_T2XCLK0
      000000C8H.1 SFRSYM    DATA     BIT       TMR2CN0_T2XCLK1
LX51 LINKER/LOCATER V4.66.97.0                                                        02/10/2023  14:24:31  PAGE 98


      000000E8H.7 SFRSYM    DATA     BIT       ADC0CN0_ADEN
      00000089H   SFRSYM    DATA     BYTE      TMOD
      00000088H   SFRSYM    DATA     BYTE      TCON
      000000B5H   SFRSYM    DATA     BYTE      PMU0MD
      000000CEH   SFRSYM    DATA     BYTE      PMU0FL
      0000009CH   SFRSYM    DATA     BYTE      CRC0FLIP
      000000D0H.0 SFRSYM    DATA     BIT       PSW_PARITY
      000000A8H.4 SFRSYM    DATA     BIT       IE_ES0
      0000009FH   SFRSYM    DATA     BYTE      CMP0MX
      000000A8H.1 SFRSYM    DATA     BIT       IE_ET0
      000000A8H.3 SFRSYM    DATA     BIT       IE_ET1
      000000D4H   SFRSYM    DATA     BYTE      P0SKIP
      000000A8H.5 SFRSYM    DATA     BIT       IE_ET2
      000000D5H   SFRSYM    DATA     BYTE      P1SKIP
      000000E8H   SFRSYM    DATA     BYTE      ADC0CN0
      000000A8H.0 SFRSYM    DATA     BIT       IE_EX0
      000000D8H.6 SFRSYM    DATA     BIT       PCA0CN0_CR
      000000A8H.2 SFRSYM    DATA     BIT       IE_EX1
      00000098H.7 SFRSYM    DATA     BIT       SCON0_SMODE
      000000A9H   SFRSYM    DATA     BYTE      CLKSEL
      000000F8H.0 SFRSYM    DATA     BIT       SPI0CN0_SPIEN
      000000F0H   SFRSYM    DATA     BYTE      B
      000000BEH   SFRSYM    DATA     BYTE      ADC0H
      0000009EH   SFRSYM    DATA     BYTE      CRC0AUTO
      000000B0H.4 SFRSYM    DATA     BIT       CS0CN0_CSBUSY
      000000E8H.6 SFRSYM    DATA     BIT       ADC0CN0_ADBMEN
      000000CAH   SFRSYM    DATA     WORD      TMR2RL
      000000BDH   SFRSYM    DATA     BYTE      ADC0L
      00000092H   SFRSYM    DATA     WORD      TMR3RL
      000000D8H   SFRSYM    DATA     BYTE      PCA0CN0
      000000E0H   SFRSYM    DATA     BYTE      ACC
      000000FBH   SFRSYM    DATA     WORD      PCA0CP0
      000000E9H   SFRSYM    DATA     WORD      PCA0CP1
      000000EBH   SFRSYM    DATA     WORD      PCA0CP2
      00000084H   SFRSYM    DATA     BYTE      CRC0CN0
      0000008CH   SFRSYM    DATA     BYTE      TH0
      000000B8H.4 SFRSYM    DATA     BIT       IP_PS0
      0000008DH   SFRSYM    DATA     BYTE      TH1
      000000FAH   SFRSYM    DATA     BYTE      PCA0H
      000000B8H.1 SFRSYM    DATA     BIT       IP_PT0
      000000B8H.3 SFRSYM    DATA     BIT       IP_PT1
      000000C0H.2 SFRSYM    DATA     BIT       SMB0CN0_ARBLOST
      000000B8H.5 SFRSYM    DATA     BIT       IP_PT2
      0000008AH   SFRSYM    DATA     BYTE      TL0
      000000AAH   SFRSYM    DATA     BYTE      CS0CF
      000000F8H.1 SFRSYM    DATA     BIT       SPI0CN0_TXBMT
      000000D0H.5 SFRSYM    DATA     BIT       PSW_F0
      000000A8H.6 SFRSYM    DATA     BIT       IE_ESPI0
      0000008BH   SFRSYM    DATA     BYTE      TL1
      000000F9H   SFRSYM    DATA     BYTE      PCA0L
      000000C0H.0 SFRSYM    DATA     BIT       SMB0CN0_SI
      000000D0H.1 SFRSYM    DATA     BIT       PSW_F1
      00000080H.0 SFRSYM    DATA     BIT       P0_B0
      000000B8H.0 SFRSYM    DATA     BIT       IP_PX0
      00000090H.0 SFRSYM    DATA     BIT       P1_B0
      00000080H.1 SFRSYM    DATA     BIT       P0_B1
      000000B8H.2 SFRSYM    DATA     BIT       IP_PX1
      000000EEH   SFRSYM    DATA     BYTE      CS0DH
      0000009BH   SFRSYM    DATA     BYTE      CMP0CN0
      00000088H.1 SFRSYM    DATA     BIT       TCON_IE0
      00000090H.1 SFRSYM    DATA     BIT       P1_B1
      00000080H.2 SFRSYM    DATA     BIT       P0_B2
LX51 LINKER/LOCATER V4.66.97.0                                                        02/10/2023  14:24:31  PAGE 99


      00000088H.3 SFRSYM    DATA     BIT       TCON_IE1
      00000090H.2 SFRSYM    DATA     BIT       P1_B2
      00000080H.3 SFRSYM    DATA     BIT       P0_B3
      000000C0H   SFRSYM    DATA     BYTE      SMB0CN0
      00000090H.3 SFRSYM    DATA     BIT       P1_B3
      00000080H.4 SFRSYM    DATA     BIT       P0_B4
      00000090H.4 SFRSYM    DATA     BIT       P1_B4
      00000080H.5 SFRSYM    DATA     BIT       P0_B5
      000000EDH   SFRSYM    DATA     BYTE      CS0DL
      00000090H.5 SFRSYM    DATA     BIT       P1_B5
      00000080H.6 SFRSYM    DATA     BIT       P0_B6
      00000090H.6 SFRSYM    DATA     BIT       P1_B6
      00000080H.7 SFRSYM    DATA     BIT       P0_B7
      00000090H.7 SFRSYM    DATA     BIT       P1_B7
      000000A0H.7 SFRSYM    DATA     BIT       P2_B7
      00000083H   SFRSYM    DATA     BYTE      DPH
      000000C4H   SFRSYM    DATA     BYTE      ADC0GTH
      000000C8H.7 SFRSYM    DATA     BIT       TMR2CN0_TF2H
      000000C8H.3 SFRSYM    DATA     BIT       TMR2CN0_T2SPLIT
      000000D0H.6 SFRSYM    DATA     BIT       PSW_AC
      000000F8H   SFRSYM    DATA     BYTE      SPI0CN0
      000000B3H   SFRSYM    DATA     BYTE      HFO0CAL
      000000DEH   SFRSYM    DATA     BYTE      CS0SE
      00000088H.5 SFRSYM    DATA     BIT       TCON_TF0
      00000098H.0 SFRSYM    DATA     BIT       SCON0_RI
      00000082H   SFRSYM    DATA     BYTE      DPL
      00000088H.7 SFRSYM    DATA     BIT       TCON_TF1
      00000099H   SFRSYM    DATA     BYTE      SBUF0
      00000087H   SFRSYM    DATA     BYTE      PCON0
      000000B9H   SFRSYM    DATA     BYTE      IREF0CF
      000000C3H   SFRSYM    DATA     BYTE      ADC0GTL
      000000C8H.6 SFRSYM    DATA     BIT       TMR2CN0_TF2L
      00000098H.1 SFRSYM    DATA     BIT       SCON0_TI
      000000E8H.0 SFRSYM    DATA     BIT       ADC0CN0_ADCM0
      000000C6H   SFRSYM    DATA     BYTE      ADC0LTH
      00000088H.0 SFRSYM    DATA     BIT       TCON_IT0
      000000B0H.1 SFRSYM    DATA     BIT       CS0CN0_CSPME
      000000E8H.1 SFRSYM    DATA     BIT       ADC0CN0_ADCM1
      000000EFH   SFRSYM    DATA     BYTE      RSTSRC
      000000D7H   SFRSYM    DATA     BYTE      P0MAT
      00000086H   SFRSYM    DATA     BYTE      CRC0DAT
      00000088H.2 SFRSYM    DATA     BIT       TCON_IT1
      000000E8H.2 SFRSYM    DATA     BIT       ADC0CN0_ADCM2
      00000098H   SFRSYM    DATA     BYTE      SCON0
      000000CFH   SFRSYM    DATA     BYTE      P1MAT
      000000DEH   SFRSYM    DATA     BYTE      CS0PM
      000000E8H.3 SFRSYM    DATA     BIT       ADC0CN0_ADWINT
      000000E8H.4 SFRSYM    DATA     BIT       ADC0CN0_ADBUSY
      000000F5H   SFRSYM    DATA     BYTE      SMB0ADM
      000000C5H   SFRSYM    DATA     BYTE      ADC0LTL
      000000F8H.5 SFRSYM    DATA     BIT       SPI0CN0_MODF
      000000B8H.6 SFRSYM    DATA     BIT       IP_PSPI0
      000000B0H.6 SFRSYM    DATA     BIT       CS0CN0_CSEOS
      000000C8H   SFRSYM    DATA     BYTE      TMR2CN0
      00000091H   SFRSYM    DATA     BYTE      TMR3CN0
      000000F4H   SFRSYM    DATA     BYTE      SMB0ADR
      00000088H.4 SFRSYM    DATA     BIT       TCON_TR0
      000000B0H.5 SFRSYM    DATA     BIT       CS0CN0_CSINT
      000000ABH   SFRSYM    DATA     BYTE      CS0MX
      000000C8H.4 SFRSYM    DATA     BIT       TMR2CN0_TF2CEN
      00000088H.6 SFRSYM    DATA     BIT       TCON_TR1
      000000C2H   SFRSYM    DATA     BYTE      SMB0DAT
LX51 LINKER/LOCATER V4.66.97.0                                                        02/10/2023  14:24:31  PAGE 100


      00000099H   SFRSYM    DATA     BYTE      P0DRV
      000000DDH   SFRSYM    DATA     BYTE      CS0SS
      00000080H.0 SFRSYM    DATA     BIT       AUX
      000000CDH   SFRSYM    DATA     BYTE      TMR2H
      000000A1H   SFRSYM    DATA     BYTE      SPI0CFG
      0000009BH   SFRSYM    DATA     BYTE      P1DRV
      00000095H   SFRSYM    DATA     BYTE      TMR3H
      0000009DH   SFRSYM    DATA     BYTE      P2DRV
      0000009AH   SFRSYM    DATA     BYTE      CRC0CNT
      000000CCH   SFRSYM    DATA     BYTE      TMR2L
      000000ACH   SFRSYM    DATA     BYTE      RTC0ADR
      000000F8H.7 SFRSYM    DATA     BIT       SPI0CN0_SPIF
      00000094H   SFRSYM    DATA     BYTE      TMR3L
      000000BBH   SFRSYM    DATA     BYTE      ADC0PWR
      000000A8H.7 SFRSYM    DATA     BIT       IE_EA
      000000ADH   SFRSYM    DATA     BYTE      RTC0DAT
      000000B0H.3 SFRSYM    DATA     BIT       CS0CN0_CSCMPEN
      000000B6H   SFRSYM    DATA     BYTE      FLSCL
      000000C8H.5 SFRSYM    DATA     BIT       TMR2CN0_TF2LEN
      000000F8H.6 SFRSYM    DATA     BIT       SPI0CN0_WCOL
      000000F8H.2 SFRSYM    DATA     BIT       SPI0CN0_NSSMD0
      000000D0H.7 SFRSYM    DATA     BIT       PSW_CY
      000000A3H   SFRSYM    DATA     BYTE      SPI0DAT
      000000F8H.3 SFRSYM    DATA     BIT       SPI0CN0_NSSMD1
      000000BDH   SFRSYM    DATA     WORD      ADC0
      0000008EH   SFRSYM    DATA     BYTE      TOFFH
      000000D0H   SFRSYM    DATA     BYTE      PSW
      000000DFH   SFRSYM    DATA     BYTE      PCA0PWM
      000000E2H   SFRSYM    DATA     BYTE      REVID
      0000008DH   SFRSYM    DATA     BYTE      TOFFL
      000000B7H   SFRSYM    DATA     BYTE      FLKEY
      000000BAH   SFRSYM    DATA     BYTE      ADC0AC

      01001687H   BLOCK     CODE     ---       LVL=0
      ---         BLOCKEND  ---      ---       LVL=0

      01001F97H   BLOCK     CODE     ---       LVL=0
      01001F97H   LINE      CODE     ---       #51
      01001F97H   LINE      CODE     ---       #52
      01001F97H   LINE      CODE     ---       #53
      ---         BLOCKEND  ---      ---       LVL=0

      010008A7H   BLOCK     CODE     ---       LVL=0
      010008A7H   BLOCK     CODE     NEAR LAB  LVL=1
      02000028H   SYMBOL    PDATA    LONG      t
      ---         BLOCKEND  ---      ---       LVL=1
      010008A7H   LINE      CODE     ---       #57
      010008A7H   LINE      CODE     ---       #58
      010008A7H   LINE      CODE     ---       #59
      010008B0H   LINE      CODE     ---       #62
      010008BCH   LINE      CODE     ---       #63
      010008C8H   LINE      CODE     ---       #66
      010008F0H   LINE      CODE     ---       #67
      010008F0H   LINE      CODE     ---       #69
      010008F2H   LINE      CODE     ---       #70
      010008F4H   LINE      CODE     ---       #71
      010008F6H   LINE      CODE     ---       #72
      010008F8H   LINE      CODE     ---       #73
      01000905H   LINE      CODE     ---       #74
      01000905H   LINE      CODE     ---       #83
      01000908H   LINE      CODE     ---       #84
      01000912H   LINE      CODE     ---       #85
LX51 LINKER/LOCATER V4.66.97.0                                                        02/10/2023  14:24:31  PAGE 101


      01000922H   LINE      CODE     ---       #87
      01000928H   LINE      CODE     ---       #88
      01000928H   LINE      CODE     ---       #89
      01000928H   LINE      CODE     ---       #90
      0100094DH   LINE      CODE     ---       #93
      01000950H   LINE      CODE     ---       #94
      0100095BH   LINE      CODE     ---       #95
      0100096BH   LINE      CODE     ---       #97
      01000971H   LINE      CODE     ---       #98
      01000971H   LINE      CODE     ---       #99
      01000971H   LINE      CODE     ---       #100
      01000996H   LINE      CODE     ---       #103
      010009A1H   LINE      CODE     ---       #104
      010009ADH   LINE      CODE     ---       #105
      ---         BLOCKEND  ---      ---       LVL=0

      ---         MODULE    ---      ---       TIMER
      00000022H.4 PUBLIC    BIT      BIT       TIMER_slowTick
      00000022H.3 PUBLIC    BIT      BIT       TIMER_fastTick
      00000022H.2 PUBLIC    BIT      BIT       TIMER_IsrTick
      0200008AH   PUBLIC    PDATA    BYTE      TIMER_SlowCount
      02000089H   PUBLIC    PDATA    BYTE      TIMER_FastCount
      01001F7CH   PUBLIC    CODE     ---       TIMER2_ISR
      01001C73H   PUBLIC    CODE     ---       TIMER_Update
      01001F5EH   PUBLIC    CODE     ---       TIMER_Init
      000000A2H   SFRSYM    DATA     BYTE      SPI0CKR
      00000080H   SFRSYM    DATA     BYTE      P0
      000000D0H.2 SFRSYM    DATA     BIT       PSW_OV
      000000B1H   SFRSYM    DATA     BYTE      XOSC0CN
      00000090H   SFRSYM    DATA     BYTE      P1
      000000A0H   SFRSYM    DATA     BYTE      P2
      00000097H   SFRSYM    DATA     BYTE      ADC0CF
      000000C0H.7 SFRSYM    DATA     BIT       SMB0CN0_MASTER
      000000F9H   SFRSYM    DATA     WORD      PCA0
      000000AEH   SFRSYM    DATA     BYTE      RTC0KEY
      000000E6H   SFRSYM    DATA     BYTE      EIE1
      000000C0H.1 SFRSYM    DATA     BIT       SMB0CN0_ACK
      000000E7H   SFRSYM    DATA     BYTE      EIE2
      0000008FH   SFRSYM    DATA     BYTE      PSCTL
      000000E4H   SFRSYM    DATA     BYTE      IT01CF
      000000B0H   SFRSYM    DATA     BYTE      CS0CN0
      000000C0H.6 SFRSYM    DATA     BIT       SMB0CN0_TXMODE
      000000E3H   SFRSYM    DATA     BYTE      DERIVID
      000000AFH   SFRSYM    DATA     BYTE      CS0MD1
      000000A7H   SFRSYM    DATA     BYTE      SFRPAGE
      000000F3H   SFRSYM    DATA     BYTE      CS0MD2
      000000A4H   SFRSYM    DATA     BYTE      P0MDOUT
      000000F3H   SFRSYM    DATA     BYTE      CS0MD3
      000000A5H   SFRSYM    DATA     BYTE      P1MDOUT
      000000E8H.5 SFRSYM    DATA     BIT       ADC0CN0_ADINT
      000000CBH   SFRSYM    DATA     BYTE      TMR2RLH
      000000A6H   SFRSYM    DATA     BYTE      P2MDOUT
      000000A8H   SFRSYM    DATA     BYTE      IE
      00000093H   SFRSYM    DATA     BYTE      TMR3RLH
      000000F6H   SFRSYM    DATA     BYTE      EIP1
      000000F7H   SFRSYM    DATA     BYTE      EIP2
      00000098H.2 SFRSYM    DATA     BIT       SCON0_RB8
      000000CAH   SFRSYM    DATA     BYTE      TMR2RLL
      000000FCH   SFRSYM    DATA     BYTE      PCA0CPH0
      00000092H   SFRSYM    DATA     BYTE      TMR3RLL
      000000EAH   SFRSYM    DATA     BYTE      PCA0CPH1
      00000098H.3 SFRSYM    DATA     BIT       SCON0_TB8
LX51 LINKER/LOCATER V4.66.97.0                                                        02/10/2023  14:24:31  PAGE 102


      000000B0H.7 SFRSYM    DATA     BIT       CS0CN0_CSEN
      000000F0H.0 SFRSYM    DATA     BIT       B_B0
      00000082H   SFRSYM    DATA     WORD      DP
      000000ECH   SFRSYM    DATA     BYTE      PCA0CPH2
      000000F0H.1 SFRSYM    DATA     BIT       B_B1
      000000C3H   SFRSYM    DATA     WORD      ADC0GT
      000000F0H.2 SFRSYM    DATA     BIT       B_B2
      000000FBH   SFRSYM    DATA     BYTE      PCA0CPL0
      000000F0H.3 SFRSYM    DATA     BIT       B_B3
      000000D9H   SFRSYM    DATA     BYTE      PCA0MD
      000000DAH   SFRSYM    DATA     BYTE      PCA0CPM0
      000000E9H   SFRSYM    DATA     BYTE      PCA0CPL1
      000000F0H.4 SFRSYM    DATA     BIT       B_B4
      000000DBH   SFRSYM    DATA     BYTE      PCA0CPM1
      000000EBH   SFRSYM    DATA     BYTE      PCA0CPL2
      000000F0H.5 SFRSYM    DATA     BIT       B_B5
      000000DCH   SFRSYM    DATA     BYTE      PCA0CPM2
      000000B8H   SFRSYM    DATA     BYTE      IP
      000000BCH   SFRSYM    DATA     BYTE      ADC0TK
      000000F0H.6 SFRSYM    DATA     BIT       B_B6
      000000C5H   SFRSYM    DATA     WORD      ADC0LT
      000000D6H   SFRSYM    DATA     BYTE      IREF0CN0
      00000098H.5 SFRSYM    DATA     BIT       SCON0_MCE
      000000F0H.7 SFRSYM    DATA     BIT       B_B7
      000000E1H   SFRSYM    DATA     BYTE      XBR0
      000000C1H   SFRSYM    DATA     BYTE      SMB0CF
      000000E2H   SFRSYM    DATA     BYTE      XBR1
      000000D2H   SFRSYM    DATA     BYTE      CS0SCAN0
      000000C0H.5 SFRSYM    DATA     BIT       SMB0CN0_STA
      000000E3H   SFRSYM    DATA     BYTE      XBR2
      000000D3H   SFRSYM    DATA     BYTE      CS0SCAN1
      00000096H   SFRSYM    DATA     BYTE      ADC0MX
      000000E0H.0 SFRSYM    DATA     BIT       ACC_ACC0
      000000D1H   SFRSYM    DATA     BYTE      REF0CN
      000000B2H   SFRSYM    DATA     BYTE      HFO0CN
      0000008EH   SFRSYM    DATA     BYTE      CKCON0
      000000E0H.1 SFRSYM    DATA     BIT       ACC_ACC1
      000000C9H   SFRSYM    DATA     BYTE      REG0CN
      00000085H   SFRSYM    DATA     BYTE      CRC0IN
      000000C8H.2 SFRSYM    DATA     BIT       TMR2CN0_TR2
      000000E0H.2 SFRSYM    DATA     BIT       ACC_ACC2
      000000E0H.3 SFRSYM    DATA     BIT       ACC_ACC3
      00000081H   SFRSYM    DATA     BYTE      SP
      0000009DH   SFRSYM    DATA     BYTE      CMP0MD
      000000E0H.4 SFRSYM    DATA     BIT       ACC_ACC4
      000000D8H.0 SFRSYM    DATA     BIT       PCA0CN0_CCF0
      000000E0H.5 SFRSYM    DATA     BIT       ACC_ACC5
      000000D8H.1 SFRSYM    DATA     BIT       PCA0CN0_CCF1
      000000E0H.6 SFRSYM    DATA     BIT       ACC_ACC6
      000000CCH   SFRSYM    DATA     WORD      TMR2
      000000D8H.2 SFRSYM    DATA     BIT       PCA0CN0_CCF2
      000000E0H.7 SFRSYM    DATA     BIT       ACC_ACC7
      00000094H   SFRSYM    DATA     WORD      TMR3
      000000B0H.0 SFRSYM    DATA     BIT       CS0CN0_CSCMPF
      000000C0H.3 SFRSYM    DATA     BIT       SMB0CN0_ACKRQ
      000000FFH   SFRSYM    DATA     BYTE      VDM0CN
      000000F1H   SFRSYM    DATA     BYTE      P0MDIN
      00000098H.4 SFRSYM    DATA     BIT       SCON0_REN
      000000F2H   SFRSYM    DATA     BYTE      P1MDIN
      000000FEH   SFRSYM    DATA     BYTE      CS0THH
      000000C0H.4 SFRSYM    DATA     BIT       SMB0CN0_STO
      000000B5H   SFRSYM    DATA     BYTE      PMU0CF
LX51 LINKER/LOCATER V4.66.97.0                                                        02/10/2023  14:24:31  PAGE 103


      000000C7H   SFRSYM    DATA     BYTE      P0MASK
      000000BFH   SFRSYM    DATA     BYTE      P1MASK
      000000FDH   SFRSYM    DATA     BYTE      CS0THL
      000000D0H.3 SFRSYM    DATA     BIT       PSW_RS0
      000000D8H.7 SFRSYM    DATA     BIT       PCA0CN0_CF
      000000F8H.4 SFRSYM    DATA     BIT       SPI0CN0_RXOVRN
      000000D0H.4 SFRSYM    DATA     BIT       PSW_RS1
      000000C8H.0 SFRSYM    DATA     BIT       TMR2CN0_T2XCLK0
      000000C8H.1 SFRSYM    DATA     BIT       TMR2CN0_T2XCLK1
      000000E8H.7 SFRSYM    DATA     BIT       ADC0CN0_ADEN
      00000089H   SFRSYM    DATA     BYTE      TMOD
      00000088H   SFRSYM    DATA     BYTE      TCON
      000000B5H   SFRSYM    DATA     BYTE      PMU0MD
      000000CEH   SFRSYM    DATA     BYTE      PMU0FL
      0000009CH   SFRSYM    DATA     BYTE      CRC0FLIP
      000000D0H.0 SFRSYM    DATA     BIT       PSW_PARITY
      000000A8H.4 SFRSYM    DATA     BIT       IE_ES0
      0000009FH   SFRSYM    DATA     BYTE      CMP0MX
      000000A8H.1 SFRSYM    DATA     BIT       IE_ET0
      000000A8H.3 SFRSYM    DATA     BIT       IE_ET1
      000000D4H   SFRSYM    DATA     BYTE      P0SKIP
      000000A8H.5 SFRSYM    DATA     BIT       IE_ET2
      000000D5H   SFRSYM    DATA     BYTE      P1SKIP
      000000E8H   SFRSYM    DATA     BYTE      ADC0CN0
      000000A8H.0 SFRSYM    DATA     BIT       IE_EX0
      000000D8H.6 SFRSYM    DATA     BIT       PCA0CN0_CR
      000000A8H.2 SFRSYM    DATA     BIT       IE_EX1
      00000098H.7 SFRSYM    DATA     BIT       SCON0_SMODE
      000000A9H   SFRSYM    DATA     BYTE      CLKSEL
      000000F8H.0 SFRSYM    DATA     BIT       SPI0CN0_SPIEN
      000000F0H   SFRSYM    DATA     BYTE      B
      000000BEH   SFRSYM    DATA     BYTE      ADC0H
      0000009EH   SFRSYM    DATA     BYTE      CRC0AUTO
      000000B0H.4 SFRSYM    DATA     BIT       CS0CN0_CSBUSY
      000000E8H.6 SFRSYM    DATA     BIT       ADC0CN0_ADBMEN
      000000CAH   SFRSYM    DATA     WORD      TMR2RL
      000000BDH   SFRSYM    DATA     BYTE      ADC0L
      00000092H   SFRSYM    DATA     WORD      TMR3RL
      000000D8H   SFRSYM    DATA     BYTE      PCA0CN0
      000000E0H   SFRSYM    DATA     BYTE      ACC
      000000FBH   SFRSYM    DATA     WORD      PCA0CP0
      000000E9H   SFRSYM    DATA     WORD      PCA0CP1
      000000EBH   SFRSYM    DATA     WORD      PCA0CP2
      00000084H   SFRSYM    DATA     BYTE      CRC0CN0
      0000008CH   SFRSYM    DATA     BYTE      TH0
      000000B8H.4 SFRSYM    DATA     BIT       IP_PS0
      0000008DH   SFRSYM    DATA     BYTE      TH1
      000000FAH   SFRSYM    DATA     BYTE      PCA0H
      000000B8H.1 SFRSYM    DATA     BIT       IP_PT0
      000000B8H.3 SFRSYM    DATA     BIT       IP_PT1
      000000C0H.2 SFRSYM    DATA     BIT       SMB0CN0_ARBLOST
      000000B8H.5 SFRSYM    DATA     BIT       IP_PT2
      0000008AH   SFRSYM    DATA     BYTE      TL0
      000000AAH   SFRSYM    DATA     BYTE      CS0CF
      000000F8H.1 SFRSYM    DATA     BIT       SPI0CN0_TXBMT
      000000D0H.5 SFRSYM    DATA     BIT       PSW_F0
      000000A8H.6 SFRSYM    DATA     BIT       IE_ESPI0
      0000008BH   SFRSYM    DATA     BYTE      TL1
      000000F9H   SFRSYM    DATA     BYTE      PCA0L
      000000C0H.0 SFRSYM    DATA     BIT       SMB0CN0_SI
      000000D0H.1 SFRSYM    DATA     BIT       PSW_F1
      00000080H.0 SFRSYM    DATA     BIT       P0_B0
LX51 LINKER/LOCATER V4.66.97.0                                                        02/10/2023  14:24:31  PAGE 104


      000000B8H.0 SFRSYM    DATA     BIT       IP_PX0
      00000090H.0 SFRSYM    DATA     BIT       P1_B0
      00000080H.1 SFRSYM    DATA     BIT       P0_B1
      000000B8H.2 SFRSYM    DATA     BIT       IP_PX1
      000000EEH   SFRSYM    DATA     BYTE      CS0DH
      0000009BH   SFRSYM    DATA     BYTE      CMP0CN0
      00000088H.1 SFRSYM    DATA     BIT       TCON_IE0
      00000090H.1 SFRSYM    DATA     BIT       P1_B1
      00000080H.2 SFRSYM    DATA     BIT       P0_B2
      00000088H.3 SFRSYM    DATA     BIT       TCON_IE1
      00000090H.2 SFRSYM    DATA     BIT       P1_B2
      00000080H.3 SFRSYM    DATA     BIT       P0_B3
      000000C0H   SFRSYM    DATA     BYTE      SMB0CN0
      00000090H.3 SFRSYM    DATA     BIT       P1_B3
      00000080H.4 SFRSYM    DATA     BIT       P0_B4
      00000090H.4 SFRSYM    DATA     BIT       P1_B4
      00000080H.5 SFRSYM    DATA     BIT       P0_B5
      000000EDH   SFRSYM    DATA     BYTE      CS0DL
      00000090H.5 SFRSYM    DATA     BIT       P1_B5
      00000080H.6 SFRSYM    DATA     BIT       P0_B6
      00000090H.6 SFRSYM    DATA     BIT       P1_B6
      00000080H.7 SFRSYM    DATA     BIT       P0_B7
      00000090H.7 SFRSYM    DATA     BIT       P1_B7
      000000A0H.7 SFRSYM    DATA     BIT       P2_B7
      00000083H   SFRSYM    DATA     BYTE      DPH
      000000C4H   SFRSYM    DATA     BYTE      ADC0GTH
      000000C8H.7 SFRSYM    DATA     BIT       TMR2CN0_TF2H
      000000C8H.3 SFRSYM    DATA     BIT       TMR2CN0_T2SPLIT
      000000D0H.6 SFRSYM    DATA     BIT       PSW_AC
      000000F8H   SFRSYM    DATA     BYTE      SPI0CN0
      000000B3H   SFRSYM    DATA     BYTE      HFO0CAL
      000000DEH   SFRSYM    DATA     BYTE      CS0SE
      00000088H.5 SFRSYM    DATA     BIT       TCON_TF0
      00000098H.0 SFRSYM    DATA     BIT       SCON0_RI
      00000082H   SFRSYM    DATA     BYTE      DPL
      00000088H.7 SFRSYM    DATA     BIT       TCON_TF1
      00000099H   SFRSYM    DATA     BYTE      SBUF0
      00000087H   SFRSYM    DATA     BYTE      PCON0
      000000B9H   SFRSYM    DATA     BYTE      IREF0CF
      000000C3H   SFRSYM    DATA     BYTE      ADC0GTL
      000000C8H.6 SFRSYM    DATA     BIT       TMR2CN0_TF2L
      00000098H.1 SFRSYM    DATA     BIT       SCON0_TI
      000000E8H.0 SFRSYM    DATA     BIT       ADC0CN0_ADCM0
      000000C6H   SFRSYM    DATA     BYTE      ADC0LTH
      00000088H.0 SFRSYM    DATA     BIT       TCON_IT0
      000000B0H.1 SFRSYM    DATA     BIT       CS0CN0_CSPME
      000000E8H.1 SFRSYM    DATA     BIT       ADC0CN0_ADCM1
      000000EFH   SFRSYM    DATA     BYTE      RSTSRC
      000000D7H   SFRSYM    DATA     BYTE      P0MAT
      00000086H   SFRSYM    DATA     BYTE      CRC0DAT
      00000088H.2 SFRSYM    DATA     BIT       TCON_IT1
      000000E8H.2 SFRSYM    DATA     BIT       ADC0CN0_ADCM2
      00000098H   SFRSYM    DATA     BYTE      SCON0
      000000CFH   SFRSYM    DATA     BYTE      P1MAT
      000000DEH   SFRSYM    DATA     BYTE      CS0PM
      000000E8H.3 SFRSYM    DATA     BIT       ADC0CN0_ADWINT
      000000E8H.4 SFRSYM    DATA     BIT       ADC0CN0_ADBUSY
      000000F5H   SFRSYM    DATA     BYTE      SMB0ADM
      000000C5H   SFRSYM    DATA     BYTE      ADC0LTL
      000000F8H.5 SFRSYM    DATA     BIT       SPI0CN0_MODF
      000000B8H.6 SFRSYM    DATA     BIT       IP_PSPI0
      000000B0H.6 SFRSYM    DATA     BIT       CS0CN0_CSEOS
LX51 LINKER/LOCATER V4.66.97.0                                                        02/10/2023  14:24:31  PAGE 105


      000000C8H   SFRSYM    DATA     BYTE      TMR2CN0
      00000091H   SFRSYM    DATA     BYTE      TMR3CN0
      000000F4H   SFRSYM    DATA     BYTE      SMB0ADR
      00000088H.4 SFRSYM    DATA     BIT       TCON_TR0
      000000B0H.5 SFRSYM    DATA     BIT       CS0CN0_CSINT
      000000ABH   SFRSYM    DATA     BYTE      CS0MX
      000000C8H.4 SFRSYM    DATA     BIT       TMR2CN0_TF2CEN
      00000088H.6 SFRSYM    DATA     BIT       TCON_TR1
      000000C2H   SFRSYM    DATA     BYTE      SMB0DAT
      00000099H   SFRSYM    DATA     BYTE      P0DRV
      000000DDH   SFRSYM    DATA     BYTE      CS0SS
      000000CDH   SFRSYM    DATA     BYTE      TMR2H
      000000A1H   SFRSYM    DATA     BYTE      SPI0CFG
      0000009BH   SFRSYM    DATA     BYTE      P1DRV
      00000095H   SFRSYM    DATA     BYTE      TMR3H
      0000009DH   SFRSYM    DATA     BYTE      P2DRV
      0000009AH   SFRSYM    DATA     BYTE      CRC0CNT
      000000CCH   SFRSYM    DATA     BYTE      TMR2L
      000000ACH   SFRSYM    DATA     BYTE      RTC0ADR
      000000F8H.7 SFRSYM    DATA     BIT       SPI0CN0_SPIF
      00000094H   SFRSYM    DATA     BYTE      TMR3L
      000000BBH   SFRSYM    DATA     BYTE      ADC0PWR
      000000A8H.7 SFRSYM    DATA     BIT       IE_EA
      000000ADH   SFRSYM    DATA     BYTE      RTC0DAT
      000000B0H.3 SFRSYM    DATA     BIT       CS0CN0_CSCMPEN
      000000B6H   SFRSYM    DATA     BYTE      FLSCL
      000000C8H.5 SFRSYM    DATA     BIT       TMR2CN0_TF2LEN
      000000F8H.6 SFRSYM    DATA     BIT       SPI0CN0_WCOL
      000000F8H.2 SFRSYM    DATA     BIT       SPI0CN0_NSSMD0
      000000D0H.7 SFRSYM    DATA     BIT       PSW_CY
      000000A3H   SFRSYM    DATA     BYTE      SPI0DAT
      000000F8H.3 SFRSYM    DATA     BIT       SPI0CN0_NSSMD1
      000000BDH   SFRSYM    DATA     WORD      ADC0
      0000008EH   SFRSYM    DATA     BYTE      TOFFH
      000000D0H   SFRSYM    DATA     BYTE      PSW
      000000DFH   SFRSYM    DATA     BYTE      PCA0PWM
      000000E2H   SFRSYM    DATA     BYTE      REVID
      0000008DH   SFRSYM    DATA     BYTE      TOFFL
      000000B7H   SFRSYM    DATA     BYTE      FLKEY
      000000BAH   SFRSYM    DATA     BYTE      ADC0AC

      01001F5EH   BLOCK     CODE     ---       LVL=0
      01001F5EH   LINE      CODE     ---       #38
      01001F5EH   LINE      CODE     ---       #39
      01001F5EH   LINE      CODE     ---       #40
      01001F60H   LINE      CODE     ---       #41
      01001F64H   LINE      CODE     ---       #42
      01001F66H   LINE      CODE     ---       #43
      ---         BLOCKEND  ---      ---       LVL=0

      01001C73H   BLOCK     CODE     ---       LVL=0
      01001C73H   LINE      CODE     ---       #47
      01001C73H   LINE      CODE     ---       #48
      01001C73H   LINE      CODE     ---       #50
      01001C75H   LINE      CODE     ---       #51
      01001C77H   LINE      CODE     ---       #53
      01001C7AH   LINE      CODE     ---       #54
      01001C7CH   LINE      CODE     ---       #56
      01001C85H   LINE      CODE     ---       #57
      01001C86H   LINE      CODE     ---       #58
      01001C88H   LINE      CODE     ---       #59
      01001C88H   LINE      CODE     ---       #61
LX51 LINKER/LOCATER V4.66.97.0                                                        02/10/2023  14:24:31  PAGE 106


      01001C91H   LINE      CODE     ---       #62
      01001C92H   LINE      CODE     ---       #63
      01001C94H   LINE      CODE     ---       #64
      01001C94H   LINE      CODE     ---       #65
      01001C94H   LINE      CODE     ---       #66
      ---         BLOCKEND  ---      ---       LVL=0

      01001F7CH   BLOCK     CODE     ---       LVL=0
      01001F7CH   LINE      CODE     ---       #73
      01001F7CH   LINE      CODE     ---       #76
      01001F7FH   LINE      CODE     ---       #78
      01001F81H   LINE      CODE     ---       #79
      ---         BLOCKEND  ---      ---       LVL=0

      ---         MODULE    ---      ---       WATCHDOG
      00000023H.1 PUBLIC    BIT      BIT       WD_Detected
      01001F75H   PUBLIC    CODE     ---       WD_Reset
      01001EADH   PUBLIC    CODE     ---       WD_Init
      000000A2H   SFRSYM    DATA     BYTE      SPI0CKR
      00000080H   SFRSYM    DATA     BYTE      P0
      000000D0H.2 SFRSYM    DATA     BIT       PSW_OV
      000000B1H   SFRSYM    DATA     BYTE      XOSC0CN
      00000090H   SFRSYM    DATA     BYTE      P1
      000000A0H   SFRSYM    DATA     BYTE      P2
      00000097H   SFRSYM    DATA     BYTE      ADC0CF
      000000C0H.7 SFRSYM    DATA     BIT       SMB0CN0_MASTER
      000000F9H   SFRSYM    DATA     WORD      PCA0
      000000AEH   SFRSYM    DATA     BYTE      RTC0KEY
      000000E6H   SFRSYM    DATA     BYTE      EIE1
      000000C0H.1 SFRSYM    DATA     BIT       SMB0CN0_ACK
      000000E7H   SFRSYM    DATA     BYTE      EIE2
      0000008FH   SFRSYM    DATA     BYTE      PSCTL
      000000E4H   SFRSYM    DATA     BYTE      IT01CF
      000000B0H   SFRSYM    DATA     BYTE      CS0CN0
      000000C0H.6 SFRSYM    DATA     BIT       SMB0CN0_TXMODE
      000000E3H   SFRSYM    DATA     BYTE      DERIVID
      000000AFH   SFRSYM    DATA     BYTE      CS0MD1
      000000A7H   SFRSYM    DATA     BYTE      SFRPAGE
      000000F3H   SFRSYM    DATA     BYTE      CS0MD2
      000000A4H   SFRSYM    DATA     BYTE      P0MDOUT
      000000F3H   SFRSYM    DATA     BYTE      CS0MD3
      000000A5H   SFRSYM    DATA     BYTE      P1MDOUT
      000000E8H.5 SFRSYM    DATA     BIT       ADC0CN0_ADINT
      000000CBH   SFRSYM    DATA     BYTE      TMR2RLH
      000000A6H   SFRSYM    DATA     BYTE      P2MDOUT
      000000A8H   SFRSYM    DATA     BYTE      IE
      00000093H   SFRSYM    DATA     BYTE      TMR3RLH
      000000F6H   SFRSYM    DATA     BYTE      EIP1
      000000F7H   SFRSYM    DATA     BYTE      EIP2
      00000098H.2 SFRSYM    DATA     BIT       SCON0_RB8
      000000CAH   SFRSYM    DATA     BYTE      TMR2RLL
      000000FCH   SFRSYM    DATA     BYTE      PCA0CPH0
      00000092H   SFRSYM    DATA     BYTE      TMR3RLL
      000000EAH   SFRSYM    DATA     BYTE      PCA0CPH1
      00000098H.3 SFRSYM    DATA     BIT       SCON0_TB8
      000000B0H.7 SFRSYM    DATA     BIT       CS0CN0_CSEN
      000000F0H.0 SFRSYM    DATA     BIT       B_B0
      00000082H   SFRSYM    DATA     WORD      DP
      000000ECH   SFRSYM    DATA     BYTE      PCA0CPH2
      000000F0H.1 SFRSYM    DATA     BIT       B_B1
      000000C3H   SFRSYM    DATA     WORD      ADC0GT
      000000F0H.2 SFRSYM    DATA     BIT       B_B2
LX51 LINKER/LOCATER V4.66.97.0                                                        02/10/2023  14:24:31  PAGE 107


      000000FBH   SFRSYM    DATA     BYTE      PCA0CPL0
      000000F0H.3 SFRSYM    DATA     BIT       B_B3
      000000D9H   SFRSYM    DATA     BYTE      PCA0MD
      000000DAH   SFRSYM    DATA     BYTE      PCA0CPM0
      000000E9H   SFRSYM    DATA     BYTE      PCA0CPL1
      000000F0H.4 SFRSYM    DATA     BIT       B_B4
      000000DBH   SFRSYM    DATA     BYTE      PCA0CPM1
      000000EBH   SFRSYM    DATA     BYTE      PCA0CPL2
      000000F0H.5 SFRSYM    DATA     BIT       B_B5
      000000DCH   SFRSYM    DATA     BYTE      PCA0CPM2
      000000B8H   SFRSYM    DATA     BYTE      IP
      000000BCH   SFRSYM    DATA     BYTE      ADC0TK
      000000F0H.6 SFRSYM    DATA     BIT       B_B6
      000000C5H   SFRSYM    DATA     WORD      ADC0LT
      000000D6H   SFRSYM    DATA     BYTE      IREF0CN0
      00000098H.5 SFRSYM    DATA     BIT       SCON0_MCE
      000000F0H.7 SFRSYM    DATA     BIT       B_B7
      000000E1H   SFRSYM    DATA     BYTE      XBR0
      000000C1H   SFRSYM    DATA     BYTE      SMB0CF
      000000E2H   SFRSYM    DATA     BYTE      XBR1
      000000D2H   SFRSYM    DATA     BYTE      CS0SCAN0
      000000C0H.5 SFRSYM    DATA     BIT       SMB0CN0_STA
      000000E3H   SFRSYM    DATA     BYTE      XBR2
      000000D3H   SFRSYM    DATA     BYTE      CS0SCAN1
      00000096H   SFRSYM    DATA     BYTE      ADC0MX
      000000E0H.0 SFRSYM    DATA     BIT       ACC_ACC0
      000000D1H   SFRSYM    DATA     BYTE      REF0CN
      000000B2H   SFRSYM    DATA     BYTE      HFO0CN
      0000008EH   SFRSYM    DATA     BYTE      CKCON0
      000000E0H.1 SFRSYM    DATA     BIT       ACC_ACC1
      000000C9H   SFRSYM    DATA     BYTE      REG0CN
      00000085H   SFRSYM    DATA     BYTE      CRC0IN
      000000C8H.2 SFRSYM    DATA     BIT       TMR2CN0_TR2
      000000E0H.2 SFRSYM    DATA     BIT       ACC_ACC2
      000000E0H.3 SFRSYM    DATA     BIT       ACC_ACC3
      00000081H   SFRSYM    DATA     BYTE      SP
      0000009DH   SFRSYM    DATA     BYTE      CMP0MD
      000000E0H.4 SFRSYM    DATA     BIT       ACC_ACC4
      000000D8H.0 SFRSYM    DATA     BIT       PCA0CN0_CCF0
      000000E0H.5 SFRSYM    DATA     BIT       ACC_ACC5
      000000D8H.1 SFRSYM    DATA     BIT       PCA0CN0_CCF1
      000000E0H.6 SFRSYM    DATA     BIT       ACC_ACC6
      000000CCH   SFRSYM    DATA     WORD      TMR2
      000000D8H.2 SFRSYM    DATA     BIT       PCA0CN0_CCF2
      000000E0H.7 SFRSYM    DATA     BIT       ACC_ACC7
      00000094H   SFRSYM    DATA     WORD      TMR3
      000000B0H.0 SFRSYM    DATA     BIT       CS0CN0_CSCMPF
      000000C0H.3 SFRSYM    DATA     BIT       SMB0CN0_ACKRQ
      000000FFH   SFRSYM    DATA     BYTE      VDM0CN
      000000F1H   SFRSYM    DATA     BYTE      P0MDIN
      00000098H.4 SFRSYM    DATA     BIT       SCON0_REN
      000000F2H   SFRSYM    DATA     BYTE      P1MDIN
      000000FEH   SFRSYM    DATA     BYTE      CS0THH
      000000C0H.4 SFRSYM    DATA     BIT       SMB0CN0_STO
      000000B5H   SFRSYM    DATA     BYTE      PMU0CF
      000000C7H   SFRSYM    DATA     BYTE      P0MASK
      000000BFH   SFRSYM    DATA     BYTE      P1MASK
      000000FDH   SFRSYM    DATA     BYTE      CS0THL
      000000D0H.3 SFRSYM    DATA     BIT       PSW_RS0
      000000D8H.7 SFRSYM    DATA     BIT       PCA0CN0_CF
      000000F8H.4 SFRSYM    DATA     BIT       SPI0CN0_RXOVRN
      000000D0H.4 SFRSYM    DATA     BIT       PSW_RS1
LX51 LINKER/LOCATER V4.66.97.0                                                        02/10/2023  14:24:31  PAGE 108


      000000C8H.0 SFRSYM    DATA     BIT       TMR2CN0_T2XCLK0
      000000C8H.1 SFRSYM    DATA     BIT       TMR2CN0_T2XCLK1
      000000E8H.7 SFRSYM    DATA     BIT       ADC0CN0_ADEN
      00000089H   SFRSYM    DATA     BYTE      TMOD
      00000088H   SFRSYM    DATA     BYTE      TCON
      000000B5H   SFRSYM    DATA     BYTE      PMU0MD
      000000CEH   SFRSYM    DATA     BYTE      PMU0FL
      0000009CH   SFRSYM    DATA     BYTE      CRC0FLIP
      000000D0H.0 SFRSYM    DATA     BIT       PSW_PARITY
      000000A8H.4 SFRSYM    DATA     BIT       IE_ES0
      0000009FH   SFRSYM    DATA     BYTE      CMP0MX
      000000A8H.1 SFRSYM    DATA     BIT       IE_ET0
      000000A8H.3 SFRSYM    DATA     BIT       IE_ET1
      000000D4H   SFRSYM    DATA     BYTE      P0SKIP
      000000A8H.5 SFRSYM    DATA     BIT       IE_ET2
      000000D5H   SFRSYM    DATA     BYTE      P1SKIP
      000000E8H   SFRSYM    DATA     BYTE      ADC0CN0
      000000A8H.0 SFRSYM    DATA     BIT       IE_EX0
      000000D8H.6 SFRSYM    DATA     BIT       PCA0CN0_CR
      000000A8H.2 SFRSYM    DATA     BIT       IE_EX1
      00000098H.7 SFRSYM    DATA     BIT       SCON0_SMODE
      000000A9H   SFRSYM    DATA     BYTE      CLKSEL
      000000F8H.0 SFRSYM    DATA     BIT       SPI0CN0_SPIEN
      000000F0H   SFRSYM    DATA     BYTE      B
      000000BEH   SFRSYM    DATA     BYTE      ADC0H
      0000009EH   SFRSYM    DATA     BYTE      CRC0AUTO
      000000B0H.4 SFRSYM    DATA     BIT       CS0CN0_CSBUSY
      000000E8H.6 SFRSYM    DATA     BIT       ADC0CN0_ADBMEN
      000000CAH   SFRSYM    DATA     WORD      TMR2RL
      000000BDH   SFRSYM    DATA     BYTE      ADC0L
      00000092H   SFRSYM    DATA     WORD      TMR3RL
      000000D8H   SFRSYM    DATA     BYTE      PCA0CN0
      000000E0H   SFRSYM    DATA     BYTE      ACC
      000000FBH   SFRSYM    DATA     WORD      PCA0CP0
      000000E9H   SFRSYM    DATA     WORD      PCA0CP1
      000000EBH   SFRSYM    DATA     WORD      PCA0CP2
      00000084H   SFRSYM    DATA     BYTE      CRC0CN0
      0000008CH   SFRSYM    DATA     BYTE      TH0
      000000B8H.4 SFRSYM    DATA     BIT       IP_PS0
      0000008DH   SFRSYM    DATA     BYTE      TH1
      000000FAH   SFRSYM    DATA     BYTE      PCA0H
      000000B8H.1 SFRSYM    DATA     BIT       IP_PT0
      000000B8H.3 SFRSYM    DATA     BIT       IP_PT1
      000000C0H.2 SFRSYM    DATA     BIT       SMB0CN0_ARBLOST
      000000B8H.5 SFRSYM    DATA     BIT       IP_PT2
      0000008AH   SFRSYM    DATA     BYTE      TL0
      000000AAH   SFRSYM    DATA     BYTE      CS0CF
      000000F8H.1 SFRSYM    DATA     BIT       SPI0CN0_TXBMT
      000000D0H.5 SFRSYM    DATA     BIT       PSW_F0
      000000A8H.6 SFRSYM    DATA     BIT       IE_ESPI0
      0000008BH   SFRSYM    DATA     BYTE      TL1
      000000F9H   SFRSYM    DATA     BYTE      PCA0L
      000000C0H.0 SFRSYM    DATA     BIT       SMB0CN0_SI
      000000D0H.1 SFRSYM    DATA     BIT       PSW_F1
      00000080H.0 SFRSYM    DATA     BIT       P0_B0
      000000B8H.0 SFRSYM    DATA     BIT       IP_PX0
      00000090H.0 SFRSYM    DATA     BIT       P1_B0
      00000080H.1 SFRSYM    DATA     BIT       P0_B1
      000000B8H.2 SFRSYM    DATA     BIT       IP_PX1
      000000EEH   SFRSYM    DATA     BYTE      CS0DH
      0000009BH   SFRSYM    DATA     BYTE      CMP0CN0
      00000088H.1 SFRSYM    DATA     BIT       TCON_IE0
LX51 LINKER/LOCATER V4.66.97.0                                                        02/10/2023  14:24:31  PAGE 109


      00000090H.1 SFRSYM    DATA     BIT       P1_B1
      00000080H.2 SFRSYM    DATA     BIT       P0_B2
      00000088H.3 SFRSYM    DATA     BIT       TCON_IE1
      00000090H.2 SFRSYM    DATA     BIT       P1_B2
      00000080H.3 SFRSYM    DATA     BIT       P0_B3
      000000C0H   SFRSYM    DATA     BYTE      SMB0CN0
      00000090H.3 SFRSYM    DATA     BIT       P1_B3
      00000080H.4 SFRSYM    DATA     BIT       P0_B4
      00000090H.4 SFRSYM    DATA     BIT       P1_B4
      00000080H.5 SFRSYM    DATA     BIT       P0_B5
      000000EDH   SFRSYM    DATA     BYTE      CS0DL
      00000090H.5 SFRSYM    DATA     BIT       P1_B5
      00000080H.6 SFRSYM    DATA     BIT       P0_B6
      00000090H.6 SFRSYM    DATA     BIT       P1_B6
      00000080H.7 SFRSYM    DATA     BIT       P0_B7
      00000090H.7 SFRSYM    DATA     BIT       P1_B7
      000000A0H.7 SFRSYM    DATA     BIT       P2_B7
      00000083H   SFRSYM    DATA     BYTE      DPH
      000000C4H   SFRSYM    DATA     BYTE      ADC0GTH
      000000C8H.7 SFRSYM    DATA     BIT       TMR2CN0_TF2H
      000000C8H.3 SFRSYM    DATA     BIT       TMR2CN0_T2SPLIT
      000000D0H.6 SFRSYM    DATA     BIT       PSW_AC
      000000F8H   SFRSYM    DATA     BYTE      SPI0CN0
      000000B3H   SFRSYM    DATA     BYTE      HFO0CAL
      000000DEH   SFRSYM    DATA     BYTE      CS0SE
      00000088H.5 SFRSYM    DATA     BIT       TCON_TF0
      00000098H.0 SFRSYM    DATA     BIT       SCON0_RI
      00000082H   SFRSYM    DATA     BYTE      DPL
      00000088H.7 SFRSYM    DATA     BIT       TCON_TF1
      00000099H   SFRSYM    DATA     BYTE      SBUF0
      00000087H   SFRSYM    DATA     BYTE      PCON0
      000000B9H   SFRSYM    DATA     BYTE      IREF0CF
      000000C3H   SFRSYM    DATA     BYTE      ADC0GTL
      000000C8H.6 SFRSYM    DATA     BIT       TMR2CN0_TF2L
      00000098H.1 SFRSYM    DATA     BIT       SCON0_TI
      000000E8H.0 SFRSYM    DATA     BIT       ADC0CN0_ADCM0
      000000C6H   SFRSYM    DATA     BYTE      ADC0LTH
      00000088H.0 SFRSYM    DATA     BIT       TCON_IT0
      000000B0H.1 SFRSYM    DATA     BIT       CS0CN0_CSPME
      000000E8H.1 SFRSYM    DATA     BIT       ADC0CN0_ADCM1
      000000EFH   SFRSYM    DATA     BYTE      RSTSRC
      000000D7H   SFRSYM    DATA     BYTE      P0MAT
      00000086H   SFRSYM    DATA     BYTE      CRC0DAT
      00000088H.2 SFRSYM    DATA     BIT       TCON_IT1
      000000E8H.2 SFRSYM    DATA     BIT       ADC0CN0_ADCM2
      00000098H   SFRSYM    DATA     BYTE      SCON0
      000000CFH   SFRSYM    DATA     BYTE      P1MAT
      000000DEH   SFRSYM    DATA     BYTE      CS0PM
      000000E8H.3 SFRSYM    DATA     BIT       ADC0CN0_ADWINT
      000000E8H.4 SFRSYM    DATA     BIT       ADC0CN0_ADBUSY
      000000F5H   SFRSYM    DATA     BYTE      SMB0ADM
      000000C5H   SFRSYM    DATA     BYTE      ADC0LTL
      000000F8H.5 SFRSYM    DATA     BIT       SPI0CN0_MODF
      000000B8H.6 SFRSYM    DATA     BIT       IP_PSPI0
      000000B0H.6 SFRSYM    DATA     BIT       CS0CN0_CSEOS
      000000C8H   SFRSYM    DATA     BYTE      TMR2CN0
      00000091H   SFRSYM    DATA     BYTE      TMR3CN0
      000000F4H   SFRSYM    DATA     BYTE      SMB0ADR
      00000088H.4 SFRSYM    DATA     BIT       TCON_TR0
      000000B0H.5 SFRSYM    DATA     BIT       CS0CN0_CSINT
      000000ABH   SFRSYM    DATA     BYTE      CS0MX
      000000C8H.4 SFRSYM    DATA     BIT       TMR2CN0_TF2CEN
LX51 LINKER/LOCATER V4.66.97.0                                                        02/10/2023  14:24:31  PAGE 110


      00000088H.6 SFRSYM    DATA     BIT       TCON_TR1
      000000C2H   SFRSYM    DATA     BYTE      SMB0DAT
      00000099H   SFRSYM    DATA     BYTE      P0DRV
      000000DDH   SFRSYM    DATA     BYTE      CS0SS
      000000CDH   SFRSYM    DATA     BYTE      TMR2H
      000000A1H   SFRSYM    DATA     BYTE      SPI0CFG
      0000009BH   SFRSYM    DATA     BYTE      P1DRV
      00000095H   SFRSYM    DATA     BYTE      TMR3H
      0000009DH   SFRSYM    DATA     BYTE      P2DRV
      0000009AH   SFRSYM    DATA     BYTE      CRC0CNT
      000000CCH   SFRSYM    DATA     BYTE      TMR2L
      000000ACH   SFRSYM    DATA     BYTE      RTC0ADR
      000000F8H.7 SFRSYM    DATA     BIT       SPI0CN0_SPIF
      00000094H   SFRSYM    DATA     BYTE      TMR3L
      000000BBH   SFRSYM    DATA     BYTE      ADC0PWR
      000000A8H.7 SFRSYM    DATA     BIT       IE_EA
      000000ADH   SFRSYM    DATA     BYTE      RTC0DAT
      000000B0H.3 SFRSYM    DATA     BIT       CS0CN0_CSCMPEN
      000000B6H   SFRSYM    DATA     BYTE      FLSCL
      000000C8H.5 SFRSYM    DATA     BIT       TMR2CN0_TF2LEN
      000000F8H.6 SFRSYM    DATA     BIT       SPI0CN0_WCOL
      000000F8H.2 SFRSYM    DATA     BIT       SPI0CN0_NSSMD0
      000000D0H.7 SFRSYM    DATA     BIT       PSW_CY
      000000A3H   SFRSYM    DATA     BYTE      SPI0DAT
      000000F8H.3 SFRSYM    DATA     BIT       SPI0CN0_NSSMD1
      000000BDH   SFRSYM    DATA     WORD      ADC0
      0000008EH   SFRSYM    DATA     BYTE      TOFFH
      000000D0H   SFRSYM    DATA     BYTE      PSW
      000000DFH   SFRSYM    DATA     BYTE      PCA0PWM
      000000E2H   SFRSYM    DATA     BYTE      REVID
      0000008DH   SFRSYM    DATA     BYTE      TOFFL
      000000B7H   SFRSYM    DATA     BYTE      FLKEY
      000000BAH   SFRSYM    DATA     BYTE      ADC0AC

      01001EADH   BLOCK     CODE     ---       LVL=0
      01001EADH   LINE      CODE     ---       #46
      01001EADH   LINE      CODE     ---       #47
      01001EADH   LINE      CODE     ---       #49
      01001EB9H   LINE      CODE     ---       #63
      ---         BLOCKEND  ---      ---       LVL=0

      01001F75H   BLOCK     CODE     ---       LVL=0
      01001F75H   LINE      CODE     ---       #66
      01001F75H   LINE      CODE     ---       #67
      01001F75H   LINE      CODE     ---       #69
      01001F78H   LINE      CODE     ---       #72
      01001F7BH   LINE      CODE     ---       #73
      ---         BLOCKEND  ---      ---       LVL=0

      ---         MODULE    ---      ---       ?C_INIT
      010010C6H   PUBLIC    CODE     ---       ?C_START

      ---         MODULE    ---      ---       ?C?UIDIV
      01000056H   PUBLIC    CODE     ---       ?C?UIDIV

      ---         MODULE    ---      ---       ?C?ISTPTR
      010000ABH   PUBLIC    CODE     ---       ?C?ISTPTR

      ---         MODULE    ---      ---       ?C?LMUL
      010000CAH   PUBLIC    CODE     ---       ?C?LMUL

      ---         MODULE    ---      ---       ?C?ULDIV
LX51 LINKER/LOCATER V4.66.97.0                                                        02/10/2023  14:24:31  PAGE 111


      01000155H   PUBLIC    CODE     ---       ?C?ULDIV

      ---         MODULE    ---      ---       ?C?SLDIV
      01001921H   PUBLIC    CODE     ---       ?C?SLDIV

      ---         MODULE    ---      ---       ?C?SLCMP
      010001E7H   PUBLIC    CODE     ---       ?C?SLCMP

      ---         MODULE    ---      ---       ?C?ULCMP
      010001FDH   PUBLIC    CODE     ---       ?C?ULCMP

      ---         MODULE    ---      ---       ?C?ULSHR
      0100020EH   PUBLIC    CODE     ---       ?C?ULSHR

      ---         MODULE    ---      ---       ?C?SLSHR
      01000221H   PUBLIC    CODE     ---       ?C?SLSHR

      ---         MODULE    ---      ---       ?C?LSHL
      01000235H   PUBLIC    CODE     ---       ?C?LSHL

      ---         MODULE    ---      ---       ?C?LLDIDATA
      01000248H   PUBLIC    CODE     ---       ?C?LLDIDATA

      ---         MODULE    ---      ---       ?C?LSTIDATA
      01000254H   PUBLIC    CODE     ---       ?C?LSTIDATA

      ---         MODULE    ---      ---       ?C?LSTPDATA
      01000260H   PUBLIC    CODE     ---       ?C?LSTPDATA

      ---         MODULE    ---      ---       ?C?LSTKPDATA
      0100026CH   PUBLIC    CODE     ---       ?C?LSTKPDATA

      ---         MODULE    ---      ---       ?C?LIMUL
      01000285H   PUBLIC    CODE     ---       ?C?LIMUL

      ---         MODULE    ---      ---       ABS
      01001EEAH   PUBLIC    CODE     ---       _ABS



*** WARNING L30: MEMORY SPACE OVERLAP
    SEG:     ?CO?ADC?0
    FROM:    C:001FFCH   
    TO:      C:001FFEH   

Program Size: data=86.2 xdata=140 const=66 code=8093
LX51 RUN COMPLETE.  1 WARNING(S),  0 ERROR(S)
